
build/test.elf:     file format elf32-littlearm


Disassembly of section .text:

00400000 <_sfixed>:
  400000:	20002990 	mulcs	r0, r0, r9
  400004:	004001b5 	strheq	r0, [r0], #-21	; 0xffffffeb
  400008:	0040025d 	subeq	r0, r0, sp, asr r2
  40000c:	0040025d 	subeq	r0, r0, sp, asr r2
  400010:	0040025d 	subeq	r0, r0, sp, asr r2
  400014:	0040025d 	subeq	r0, r0, sp, asr r2
  400018:	0040025d 	subeq	r0, r0, sp, asr r2
	...
  40002c:	0040025d 	subeq	r0, r0, sp, asr r2
  400030:	0040025d 	subeq	r0, r0, sp, asr r2
  400034:	00000000 	andeq	r0, r0, r0
  400038:	0040025d 	subeq	r0, r0, sp, asr r2
  40003c:	0040025d 	subeq	r0, r0, sp, asr r2
  400040:	0040025d 	subeq	r0, r0, sp, asr r2
  400044:	0040025d 	subeq	r0, r0, sp, asr r2
  400048:	0040025d 	subeq	r0, r0, sp, asr r2
  40004c:	0040025d 	subeq	r0, r0, sp, asr r2
  400050:	0040025d 	subeq	r0, r0, sp, asr r2
  400054:	0040025d 	subeq	r0, r0, sp, asr r2
  400058:	0040025d 	subeq	r0, r0, sp, asr r2
  40005c:	00000000 	andeq	r0, r0, r0
  400060:	004004d1 	ldrdeq	r0, [r0], #-65	; 0xffffffbf
  400064:	0040025d 	subeq	r0, r0, sp, asr r2
  400068:	0040025d 	subeq	r0, r0, sp, asr r2
  40006c:	0040025d 	subeq	r0, r0, sp, asr r2
  400070:	0040025d 	subeq	r0, r0, sp, asr r2
  400074:	0040025d 	subeq	r0, r0, sp, asr r2
  400078:	0040025d 	subeq	r0, r0, sp, asr r2
  40007c:	004004e1 	subeq	r0, r0, r1, ror #9
	...
  400088:	0040025d 	subeq	r0, r0, sp, asr r2
  40008c:	0040025d 	subeq	r0, r0, sp, asr r2
  400090:	0040025d 	subeq	r0, r0, sp, asr r2
  400094:	0040025d 	subeq	r0, r0, sp, asr r2
  400098:	0040025d 	subeq	r0, r0, sp, asr r2
  40009c:	0040025d 	subeq	r0, r0, sp, asr r2
  4000a0:	0040025d 	subeq	r0, r0, sp, asr r2
  4000a4:	0040025d 	subeq	r0, r0, sp, asr r2
  4000a8:	0040025d 	subeq	r0, r0, sp, asr r2
  4000ac:	0040025d 	subeq	r0, r0, sp, asr r2
  4000b0:	0040025d 	subeq	r0, r0, sp, asr r2
  4000b4:	0040025d 	subeq	r0, r0, sp, asr r2
  4000b8:	0040025d 	subeq	r0, r0, sp, asr r2
  4000bc:	0040025d 	subeq	r0, r0, sp, asr r2
  4000c0:	0040025d 	subeq	r0, r0, sp, asr r2
  4000c4:	0040025d 	subeq	r0, r0, sp, asr r2
  4000c8:	0040025d 	subeq	r0, r0, sp, asr r2

004000cc <__do_global_dtors_aux>:
  4000cc:	b510      	push	{r4, lr}
  4000ce:	4c05      	ldr	r4, [pc, #20]	; (4000e4 <__do_global_dtors_aux+0x18>)
  4000d0:	7823      	ldrb	r3, [r4, #0]
  4000d2:	b933      	cbnz	r3, 4000e2 <__do_global_dtors_aux+0x16>
  4000d4:	4b04      	ldr	r3, [pc, #16]	; (4000e8 <__do_global_dtors_aux+0x1c>)
  4000d6:	b113      	cbz	r3, 4000de <__do_global_dtors_aux+0x12>
  4000d8:	4804      	ldr	r0, [pc, #16]	; (4000ec <__do_global_dtors_aux+0x20>)
  4000da:	f3af 8000 	nop.w
  4000de:	2301      	movs	r3, #1
  4000e0:	7023      	strb	r3, [r4, #0]
  4000e2:	bd10      	pop	{r4, pc}
  4000e4:	20000844 	andcs	r0, r0, r4, asr #16
  4000e8:	00000000 	andeq	r0, r0, r0
  4000ec:	00401b18 	subeq	r1, r0, r8, lsl fp

004000f0 <frame_dummy>:
  4000f0:	b508      	push	{r3, lr}
  4000f2:	4b06      	ldr	r3, [pc, #24]	; (40010c <frame_dummy+0x1c>)
  4000f4:	b11b      	cbz	r3, 4000fe <frame_dummy+0xe>
  4000f6:	4806      	ldr	r0, [pc, #24]	; (400110 <frame_dummy+0x20>)
  4000f8:	4906      	ldr	r1, [pc, #24]	; (400114 <frame_dummy+0x24>)
  4000fa:	f3af 8000 	nop.w
  4000fe:	4806      	ldr	r0, [pc, #24]	; (400118 <frame_dummy+0x28>)
  400100:	6803      	ldr	r3, [r0, #0]
  400102:	b113      	cbz	r3, 40010a <frame_dummy+0x1a>
  400104:	4b05      	ldr	r3, [pc, #20]	; (40011c <frame_dummy+0x2c>)
  400106:	b103      	cbz	r3, 40010a <frame_dummy+0x1a>
  400108:	4798      	blx	r3
  40010a:	bd08      	pop	{r3, pc}
  40010c:	00000000 	andeq	r0, r0, r0
  400110:	00401b18 	subeq	r1, r0, r8, lsl fp
  400114:	20000848 	andcs	r0, r0, r8, asr #16
  400118:	00401b18 	subeq	r1, r0, r8, lsl fp
  40011c:	00000000 	andeq	r0, r0, r0

00400120 <_sbrk>:
  400120:	4b04      	ldr	r3, [pc, #16]	; (400134 <_sbrk+0x14>)
  400122:	681a      	ldr	r2, [r3, #0]
  400124:	b90a      	cbnz	r2, 40012a <_sbrk+0xa>
  400126:	4a04      	ldr	r2, [pc, #16]	; (400138 <_sbrk+0x18>)
  400128:	601a      	str	r2, [r3, #0]
  40012a:	681a      	ldr	r2, [r3, #0]
  40012c:	4410      	add	r0, r2
  40012e:	6018      	str	r0, [r3, #0]
  400130:	4610      	mov	r0, r2
  400132:	4770      	bx	lr
  400134:	20000860 	andcs	r0, r0, r0, ror #16
  400138:	20002990 	mulcs	r0, r0, r9

0040013c <setup>:
  40013c:	b510      	push	{r4, lr}
  40013e:	2013      	movs	r0, #19
  400140:	4c09      	ldr	r4, [pc, #36]	; (400168 <setup+0x2c>)
  400142:	2101      	movs	r1, #1
  400144:	f000 f89c 	bl	400280 <pinMode>
  400148:	2013      	movs	r0, #19
  40014a:	2100      	movs	r1, #0
  40014c:	f000 f8ca 	bl	4002e4 <digitalWrite>
  400150:	4620      	mov	r0, r4
  400152:	f44f 31e1 	mov.w	r1, #115200	; 0x1c200
  400156:	f000 f961 	bl	40041c <_ZN9UARTClass5beginEm>
  40015a:	4620      	mov	r0, r4
  40015c:	4903      	ldr	r1, [pc, #12]	; (40016c <setup+0x30>)
  40015e:	e8bd 4010 	ldmia.w	sp!, {r4, lr}
  400162:	f000 b914 	b.w	40038e <_ZN5Print7printlnEPKc>
  400166:	bf00      	nop
  400168:	20000868 	andcs	r0, r0, r8, ror #16
  40016c:	004016fc 	strdeq	r1, [r0], #-108	; 0xffffff94

00400170 <loop>:
  400170:	b510      	push	{r4, lr}
  400172:	4c07      	ldr	r4, [pc, #28]	; (400190 <loop+0x20>)
  400174:	2013      	movs	r0, #19
  400176:	7821      	ldrb	r1, [r4, #0]
  400178:	f000 f8b4 	bl	4002e4 <digitalWrite>
  40017c:	7823      	ldrb	r3, [r4, #0]
  40017e:	f44f 707a 	mov.w	r0, #1000	; 0x3e8
  400182:	f083 0301 	eor.w	r3, r3, #1
  400186:	7023      	strb	r3, [r4, #0]
  400188:	e8bd 4010 	ldmia.w	sp!, {r4, lr}
  40018c:	f000 b86a 	b.w	400264 <delay>
  400190:	20000864 	andcs	r0, r0, r4, ror #16

00400194 <main>:
  400194:	b508      	push	{r3, lr}
  400196:	f000 f9a9 	bl	4004ec <init>
  40019a:	f7ff ffcf 	bl	40013c <setup>
  40019e:	f7ff ffe7 	bl	400170 <loop>
  4001a2:	4b03      	ldr	r3, [pc, #12]	; (4001b0 <main+0x1c>)
  4001a4:	2b00      	cmp	r3, #0
  4001a6:	d0fa      	beq.n	40019e <main+0xa>
  4001a8:	f000 fa2e 	bl	400608 <_Z14serialEventRunv>
  4001ac:	e7f7      	b.n	40019e <main+0xa>
  4001ae:	bf00      	nop
  4001b0:	00400609 	subeq	r0, r0, r9, lsl #12

004001b4 <Reset_Handler>:
  4001b4:	b580      	push	{r7, lr}
  4001b6:	b082      	sub	sp, #8
  4001b8:	af00      	add	r7, sp, #0
  4001ba:	4b1e      	ldr	r3, [pc, #120]	; (400234 <Reset_Handler+0x80>)
  4001bc:	607b      	str	r3, [r7, #4]
  4001be:	4b1e      	ldr	r3, [pc, #120]	; (400238 <Reset_Handler+0x84>)
  4001c0:	603b      	str	r3, [r7, #0]
  4001c2:	687a      	ldr	r2, [r7, #4]
  4001c4:	683b      	ldr	r3, [r7, #0]
  4001c6:	429a      	cmp	r2, r3
  4001c8:	d00c      	beq.n	4001e4 <Reset_Handler+0x30>
  4001ca:	e007      	b.n	4001dc <Reset_Handler+0x28>
  4001cc:	683b      	ldr	r3, [r7, #0]
  4001ce:	1d1a      	adds	r2, r3, #4
  4001d0:	603a      	str	r2, [r7, #0]
  4001d2:	687a      	ldr	r2, [r7, #4]
  4001d4:	1d11      	adds	r1, r2, #4
  4001d6:	6079      	str	r1, [r7, #4]
  4001d8:	6812      	ldr	r2, [r2, #0]
  4001da:	601a      	str	r2, [r3, #0]
  4001dc:	683a      	ldr	r2, [r7, #0]
  4001de:	4b17      	ldr	r3, [pc, #92]	; (40023c <Reset_Handler+0x88>)
  4001e0:	429a      	cmp	r2, r3
  4001e2:	d3f3      	bcc.n	4001cc <Reset_Handler+0x18>
  4001e4:	4b16      	ldr	r3, [pc, #88]	; (400240 <Reset_Handler+0x8c>)
  4001e6:	603b      	str	r3, [r7, #0]
  4001e8:	e004      	b.n	4001f4 <Reset_Handler+0x40>
  4001ea:	683b      	ldr	r3, [r7, #0]
  4001ec:	1d1a      	adds	r2, r3, #4
  4001ee:	603a      	str	r2, [r7, #0]
  4001f0:	2200      	movs	r2, #0
  4001f2:	601a      	str	r2, [r3, #0]
  4001f4:	683a      	ldr	r2, [r7, #0]
  4001f6:	4b13      	ldr	r3, [pc, #76]	; (400244 <Reset_Handler+0x90>)
  4001f8:	429a      	cmp	r2, r3
  4001fa:	d3f6      	bcc.n	4001ea <Reset_Handler+0x36>
  4001fc:	4b12      	ldr	r3, [pc, #72]	; (400248 <Reset_Handler+0x94>)
  4001fe:	607b      	str	r3, [r7, #4]
  400200:	4a12      	ldr	r2, [pc, #72]	; (40024c <Reset_Handler+0x98>)
  400202:	687b      	ldr	r3, [r7, #4]
  400204:	f023 4360 	bic.w	r3, r3, #3758096384	; 0xe0000000
  400208:	f023 037f 	bic.w	r3, r3, #127	; 0x7f
  40020c:	6093      	str	r3, [r2, #8]
  40020e:	687b      	ldr	r3, [r7, #4]
  400210:	f1b3 5f00 	cmp.w	r3, #536870912	; 0x20000000
  400214:	d309      	bcc.n	40022a <Reset_Handler+0x76>
  400216:	687a      	ldr	r2, [r7, #4]
  400218:	4b0d      	ldr	r3, [pc, #52]	; (400250 <Reset_Handler+0x9c>)
  40021a:	429a      	cmp	r2, r3
  40021c:	d805      	bhi.n	40022a <Reset_Handler+0x76>
  40021e:	4b0b      	ldr	r3, [pc, #44]	; (40024c <Reset_Handler+0x98>)
  400220:	4a0a      	ldr	r2, [pc, #40]	; (40024c <Reset_Handler+0x98>)
  400222:	6892      	ldr	r2, [r2, #8]
  400224:	f042 5200 	orr.w	r2, r2, #536870912	; 0x20000000
  400228:	609a      	str	r2, [r3, #8]
  40022a:	4b0a      	ldr	r3, [pc, #40]	; (400254 <Reset_Handler+0xa0>)
  40022c:	4798      	blx	r3
  40022e:	4b0a      	ldr	r3, [pc, #40]	; (400258 <Reset_Handler+0xa4>)
  400230:	4798      	blx	r3
  400232:	e7fe      	b.n	400232 <Reset_Handler+0x7e>
  400234:	00401b18 	subeq	r1, r0, r8, lsl fp
  400238:	20000000 	andcs	r0, r0, r0
  40023c:	20000844 	andcs	r0, r0, r4, asr #16
  400240:	20000844 	andcs	r0, r0, r4, asr #16
  400244:	20000990 	mulcs	r0, r0, r9
  400248:	00400000 	subeq	r0, r0, r0
  40024c:	e000ed00 	and	lr, r0, r0, lsl #26
  400250:	20003fff 	strdcs	r3, [r0], -pc	; <UNPREDICTABLE>
  400254:	00400d19 	subeq	r0, r0, r9, lsl sp
  400258:	00400195 	umaaleq	r0, r0, r5, r1

0040025c <Dummy_Handler>:
  40025c:	b480      	push	{r7}
  40025e:	af00      	add	r7, sp, #0
  400260:	e7fe      	b.n	400260 <Dummy_Handler+0x4>
  400262:	bf00      	nop

00400264 <delay>:
  400264:	b510      	push	{r4, lr}
  400266:	4604      	mov	r4, r0
  400268:	f000 fcda 	bl	400c20 <GetTickCount>
  40026c:	4404      	add	r4, r0
  40026e:	f000 fcd7 	bl	400c20 <GetTickCount>
  400272:	42a0      	cmp	r0, r4
  400274:	d202      	bcs.n	40027c <delay+0x18>
  400276:	f000 f9e3 	bl	400640 <yield>
  40027a:	e7f8      	b.n	40026e <delay+0xa>
  40027c:	bd10      	pop	{r4, pc}
	...

00400280 <pinMode>:
  400280:	b570      	push	{r4, r5, r6, lr}
  400282:	251c      	movs	r5, #28
  400284:	4345      	muls	r5, r0
  400286:	4e16      	ldr	r6, [pc, #88]	; (4002e0 <pinMode+0x60>)
  400288:	1974      	adds	r4, r6, r5
  40028a:	7b23      	ldrb	r3, [r4, #12]
  40028c:	b33b      	cbz	r3, 4002de <pinMode+0x5e>
  40028e:	2901      	cmp	r1, #1
  400290:	d016      	beq.n	4002c0 <pinMode+0x40>
  400292:	d302      	bcc.n	40029a <pinMode+0x1a>
  400294:	2902      	cmp	r1, #2
  400296:	d008      	beq.n	4002aa <pinMode+0x2a>
  400298:	bd70      	pop	{r4, r5, r6, pc}
  40029a:	68a0      	ldr	r0, [r4, #8]
  40029c:	f000 fc3c 	bl	400b18 <pmc_enable_periph_clk>
  4002a0:	5970      	ldr	r0, [r6, r5]
  4002a2:	2105      	movs	r1, #5
  4002a4:	6862      	ldr	r2, [r4, #4]
  4002a6:	2300      	movs	r3, #0
  4002a8:	e006      	b.n	4002b8 <pinMode+0x38>
  4002aa:	68a0      	ldr	r0, [r4, #8]
  4002ac:	f000 fc34 	bl	400b18 <pmc_enable_periph_clk>
  4002b0:	5970      	ldr	r0, [r6, r5]
  4002b2:	6862      	ldr	r2, [r4, #4]
  4002b4:	2105      	movs	r1, #5
  4002b6:	2301      	movs	r3, #1
  4002b8:	e8bd 4070 	ldmia.w	sp!, {r4, r5, r6, lr}
  4002bc:	f000 bbac 	b.w	400a18 <PIO_Configure>
  4002c0:	5975      	ldr	r5, [r6, r5]
  4002c2:	6923      	ldr	r3, [r4, #16]
  4002c4:	4628      	mov	r0, r5
  4002c6:	2107      	movs	r1, #7
  4002c8:	6862      	ldr	r2, [r4, #4]
  4002ca:	f000 fba5 	bl	400a18 <PIO_Configure>
  4002ce:	69ab      	ldr	r3, [r5, #24]
  4002d0:	3301      	adds	r3, #1
  4002d2:	d104      	bne.n	4002de <pinMode+0x5e>
  4002d4:	68a0      	ldr	r0, [r4, #8]
  4002d6:	e8bd 4070 	ldmia.w	sp!, {r4, r5, r6, lr}
  4002da:	f000 bc5f 	b.w	400b9c <pmc_disable_periph_clk>
  4002de:	bd70      	pop	{r4, r5, r6, pc}
  4002e0:	00401740 	subeq	r1, r0, r0, asr #14

004002e4 <digitalWrite>:
  4002e4:	221c      	movs	r2, #28
  4002e6:	b573      	push	{r0, r1, r4, r5, r6, lr}
  4002e8:	4350      	muls	r0, r2
  4002ea:	4b0f      	ldr	r3, [pc, #60]	; (400328 <digitalWrite+0x44>)
  4002ec:	460e      	mov	r6, r1
  4002ee:	181a      	adds	r2, r3, r0
  4002f0:	7b11      	ldrb	r1, [r2, #12]
  4002f2:	b1b1      	cbz	r1, 400322 <digitalWrite+0x3e>
  4002f4:	581d      	ldr	r5, [r3, r0]
  4002f6:	6854      	ldr	r4, [r2, #4]
  4002f8:	4628      	mov	r0, r5
  4002fa:	4621      	mov	r1, r4
  4002fc:	f000 fbf2 	bl	400ae4 <PIO_GetOutputDataStatus>
  400300:	b938      	cbnz	r0, 400312 <digitalWrite+0x2e>
  400302:	4628      	mov	r0, r5
  400304:	4621      	mov	r1, r4
  400306:	4632      	mov	r2, r6
  400308:	b002      	add	sp, #8
  40030a:	e8bd 4070 	ldmia.w	sp!, {r4, r5, r6, lr}
  40030e:	f000 ba7f 	b.w	400810 <PIO_PullUp>
  400312:	2301      	movs	r3, #1
  400314:	9300      	str	r3, [sp, #0]
  400316:	4628      	mov	r0, r5
  400318:	4621      	mov	r1, r4
  40031a:	4632      	mov	r2, r6
  40031c:	2300      	movs	r3, #0
  40031e:	f000 fb49 	bl	4009b4 <PIO_SetOutput>
  400322:	b002      	add	sp, #8
  400324:	bd70      	pop	{r4, r5, r6, pc}
  400326:	bf00      	nop
  400328:	00401740 	subeq	r1, r0, r0, asr #14

0040032c <_ZN5Print5writeEPKhj>:
  40032c:	b5f8      	push	{r3, r4, r5, r6, r7, lr}
  40032e:	4606      	mov	r6, r0
  400330:	460c      	mov	r4, r1
  400332:	188f      	adds	r7, r1, r2
  400334:	2500      	movs	r5, #0
  400336:	42bc      	cmp	r4, r7
  400338:	d007      	beq.n	40034a <_ZN5Print5writeEPKhj+0x1e>
  40033a:	6833      	ldr	r3, [r6, #0]
  40033c:	4630      	mov	r0, r6
  40033e:	681b      	ldr	r3, [r3, #0]
  400340:	f814 1b01 	ldrb.w	r1, [r4], #1
  400344:	4798      	blx	r3
  400346:	4405      	add	r5, r0
  400348:	e7f5      	b.n	400336 <_ZN5Print5writeEPKhj+0xa>
  40034a:	4628      	mov	r0, r5
  40034c:	bdf8      	pop	{r3, r4, r5, r6, r7, pc}

0040034e <_ZN5Print5writeEPKc>:
  40034e:	b538      	push	{r3, r4, r5, lr}
  400350:	4605      	mov	r5, r0
  400352:	460c      	mov	r4, r1
  400354:	4608      	mov	r0, r1
  400356:	b141      	cbz	r1, 40036a <_ZN5Print5writeEPKc+0x1c>
  400358:	f001 f80a 	bl	401370 <strlen>
  40035c:	682b      	ldr	r3, [r5, #0]
  40035e:	4602      	mov	r2, r0
  400360:	685b      	ldr	r3, [r3, #4]
  400362:	4628      	mov	r0, r5
  400364:	4621      	mov	r1, r4
  400366:	4798      	blx	r3
  400368:	bd38      	pop	{r3, r4, r5, pc}
  40036a:	bd38      	pop	{r3, r4, r5, pc}

0040036c <_ZN5Print5printEc>:
  40036c:	b508      	push	{r3, lr}
  40036e:	6803      	ldr	r3, [r0, #0]
  400370:	681b      	ldr	r3, [r3, #0]
  400372:	4798      	blx	r3
  400374:	bd08      	pop	{r3, pc}

00400376 <_ZN5Print7printlnEv>:
  400376:	b538      	push	{r3, r4, r5, lr}
  400378:	210d      	movs	r1, #13
  40037a:	4605      	mov	r5, r0
  40037c:	f7ff fff6 	bl	40036c <_ZN5Print5printEc>
  400380:	210a      	movs	r1, #10
  400382:	4604      	mov	r4, r0
  400384:	4628      	mov	r0, r5
  400386:	f7ff fff1 	bl	40036c <_ZN5Print5printEc>
  40038a:	4420      	add	r0, r4
  40038c:	bd38      	pop	{r3, r4, r5, pc}

0040038e <_ZN5Print7printlnEPKc>:
  40038e:	b538      	push	{r3, r4, r5, lr}
  400390:	4604      	mov	r4, r0
  400392:	f7ff ffdc 	bl	40034e <_ZN5Print5writeEPKc>
  400396:	4605      	mov	r5, r0
  400398:	4620      	mov	r0, r4
  40039a:	f7ff ffec 	bl	400376 <_ZN5Print7printlnEv>
  40039e:	4428      	add	r0, r5
  4003a0:	bd38      	pop	{r3, r4, r5, pc}

004003a2 <_ZN9UARTClasscvbEv>:
  4003a2:	2001      	movs	r0, #1
  4003a4:	4770      	bx	lr

004003a6 <_ZN9UARTClass9availableEv>:
  4003a6:	6903      	ldr	r3, [r0, #16]
  4003a8:	6c18      	ldr	r0, [r3, #64]	; 0x40
  4003aa:	6c5b      	ldr	r3, [r3, #68]	; 0x44
  4003ac:	1ac0      	subs	r0, r0, r3
  4003ae:	f000 003f 	and.w	r0, r0, #63	; 0x3f
  4003b2:	4770      	bx	lr

004003b4 <_ZN9UARTClass4peekEv>:
  4003b4:	6903      	ldr	r3, [r0, #16]
  4003b6:	6c5a      	ldr	r2, [r3, #68]	; 0x44
  4003b8:	6c19      	ldr	r1, [r3, #64]	; 0x40
  4003ba:	4291      	cmp	r1, r2
  4003bc:	bf14      	ite	ne
  4003be:	5c98      	ldrbne	r0, [r3, r2]
  4003c0:	f04f 30ff 	moveq.w	r0, #4294967295
  4003c4:	4770      	bx	lr

004003c6 <_ZN9UARTClass4readEv>:
  4003c6:	6903      	ldr	r3, [r0, #16]
  4003c8:	6c5a      	ldr	r2, [r3, #68]	; 0x44
  4003ca:	6c19      	ldr	r1, [r3, #64]	; 0x40
  4003cc:	4291      	cmp	r1, r2
  4003ce:	d005      	beq.n	4003dc <_ZN9UARTClass4readEv+0x16>
  4003d0:	5c98      	ldrb	r0, [r3, r2]
  4003d2:	3201      	adds	r2, #1
  4003d4:	f002 023f 	and.w	r2, r2, #63	; 0x3f
  4003d8:	645a      	str	r2, [r3, #68]	; 0x44
  4003da:	4770      	bx	lr
  4003dc:	f04f 30ff 	mov.w	r0, #4294967295
  4003e0:	4770      	bx	lr

004003e2 <_ZN9UARTClass5flushEv>:
  4003e2:	6942      	ldr	r2, [r0, #20]
  4003e4:	6953      	ldr	r3, [r2, #20]
  4003e6:	079b      	lsls	r3, r3, #30
  4003e8:	d5fc      	bpl.n	4003e4 <_ZN9UARTClass5flushEv+0x2>
  4003ea:	4770      	bx	lr

004003ec <_ZN9UARTClass5writeEh>:
  4003ec:	6943      	ldr	r3, [r0, #20]
  4003ee:	695a      	ldr	r2, [r3, #20]
  4003f0:	0792      	lsls	r2, r2, #30
  4003f2:	d5fc      	bpl.n	4003ee <_ZN9UARTClass5writeEh+0x2>
  4003f4:	61d9      	str	r1, [r3, #28]
  4003f6:	2001      	movs	r0, #1
  4003f8:	4770      	bx	lr
	...

004003fc <_ZN9UARTClassC1EP4Uart4IRQnmP10RingBuffer>:
  4003fc:	b530      	push	{r4, r5, lr}
  4003fe:	2500      	movs	r5, #0
  400400:	6045      	str	r5, [r0, #4]
  400402:	f44f 757a 	mov.w	r5, #1000	; 0x3e8
  400406:	6085      	str	r5, [r0, #8]
  400408:	4d03      	ldr	r5, [pc, #12]	; (400418 <_ZN9UARTClassC1EP4Uart4IRQnmP10RingBuffer+0x1c>)
  40040a:	6141      	str	r1, [r0, #20]
  40040c:	6005      	str	r5, [r0, #0]
  40040e:	9d03      	ldr	r5, [sp, #12]
  400410:	7602      	strb	r2, [r0, #24]
  400412:	6105      	str	r5, [r0, #16]
  400414:	61c3      	str	r3, [r0, #28]
  400416:	bd30      	pop	{r4, r5, pc}
  400418:	00401720 	subeq	r1, r0, r0, lsr #14

0040041c <_ZN9UARTClass5beginEm>:
  40041c:	b538      	push	{r3, r4, r5, lr}
  40041e:	4604      	mov	r4, r0
  400420:	69c0      	ldr	r0, [r0, #28]
  400422:	460d      	mov	r5, r1
  400424:	f000 fb78 	bl	400b18 <pmc_enable_periph_clk>
  400428:	6963      	ldr	r3, [r4, #20]
  40042a:	f240 2202 	movw	r2, #514	; 0x202
  40042e:	f8c3 2120 	str.w	r2, [r3, #288]	; 0x120
  400432:	22ac      	movs	r2, #172	; 0xac
  400434:	601a      	str	r2, [r3, #0]
  400436:	f44f 6200 	mov.w	r2, #2048	; 0x800
  40043a:	605a      	str	r2, [r3, #4]
  40043c:	4a0c      	ldr	r2, [pc, #48]	; (400470 <_ZN9UARTClass5beginEm+0x54>)
  40043e:	2101      	movs	r1, #1
  400440:	6812      	ldr	r2, [r2, #0]
  400442:	fbb2 f5f5 	udiv	r5, r2, r5
  400446:	092d      	lsrs	r5, r5, #4
  400448:	f04f 32ff 	mov.w	r2, #4294967295
  40044c:	621d      	str	r5, [r3, #32]
  40044e:	60da      	str	r2, [r3, #12]
  400450:	2261      	movs	r2, #97	; 0x61
  400452:	609a      	str	r2, [r3, #8]
  400454:	7e22      	ldrb	r2, [r4, #24]
  400456:	b250      	sxtb	r0, r2
  400458:	f002 021f 	and.w	r2, r2, #31
  40045c:	fa01 f202 	lsl.w	r2, r1, r2
  400460:	4904      	ldr	r1, [pc, #16]	; (400474 <_ZN9UARTClass5beginEm+0x58>)
  400462:	0940      	lsrs	r0, r0, #5
  400464:	f841 2020 	str.w	r2, [r1, r0, lsl #2]
  400468:	2250      	movs	r2, #80	; 0x50
  40046a:	601a      	str	r2, [r3, #0]
  40046c:	bd38      	pop	{r3, r4, r5, pc}
  40046e:	bf00      	nop
  400470:	20000000 	andcs	r0, r0, r0
  400474:	e000e100 	and	lr, r0, r0, lsl #2

00400478 <_ZN9UARTClass10IrqHandlerEv>:
  400478:	b538      	push	{r3, r4, r5, lr}
  40047a:	6943      	ldr	r3, [r0, #20]
  40047c:	4604      	mov	r4, r0
  40047e:	695d      	ldr	r5, [r3, #20]
  400480:	07ea      	lsls	r2, r5, #31
  400482:	d504      	bpl.n	40048e <_ZN9UARTClass10IrqHandlerEv+0x16>
  400484:	6999      	ldr	r1, [r3, #24]
  400486:	6900      	ldr	r0, [r0, #16]
  400488:	b2c9      	uxtb	r1, r1
  40048a:	f000 f814 	bl	4004b6 <_ZN10RingBuffer10store_charEh>
  40048e:	f015 0f60 	tst.w	r5, #96	; 0x60
  400492:	d004      	beq.n	40049e <_ZN9UARTClass10IrqHandlerEv+0x26>
  400494:	6963      	ldr	r3, [r4, #20]
  400496:	681a      	ldr	r2, [r3, #0]
  400498:	f442 7280 	orr.w	r2, r2, #256	; 0x100
  40049c:	601a      	str	r2, [r3, #0]
  40049e:	bd38      	pop	{r3, r4, r5, pc}

004004a0 <_ZN10RingBufferC1Ev>:
  4004a0:	b510      	push	{r4, lr}
  4004a2:	2100      	movs	r1, #0
  4004a4:	2240      	movs	r2, #64	; 0x40
  4004a6:	4604      	mov	r4, r0
  4004a8:	f000 ff02 	bl	4012b0 <memset>
  4004ac:	2300      	movs	r3, #0
  4004ae:	6423      	str	r3, [r4, #64]	; 0x40
  4004b0:	6463      	str	r3, [r4, #68]	; 0x44
  4004b2:	4620      	mov	r0, r4
  4004b4:	bd10      	pop	{r4, pc}

004004b6 <_ZN10RingBuffer10store_charEh>:
  4004b6:	6c02      	ldr	r2, [r0, #64]	; 0x40
  4004b8:	b510      	push	{r4, lr}
  4004ba:	1c53      	adds	r3, r2, #1
  4004bc:	6c44      	ldr	r4, [r0, #68]	; 0x44
  4004be:	f003 033f 	and.w	r3, r3, #63	; 0x3f
  4004c2:	42a3      	cmp	r3, r4
  4004c4:	bf1c      	itt	ne
  4004c6:	5481      	strbne	r1, [r0, r2]
  4004c8:	6403      	strne	r3, [r0, #64]	; 0x40
  4004ca:	bd10      	pop	{r4, pc}

004004cc <_Z11serialEventv>:
  4004cc:	4770      	bx	lr
	...

004004d0 <UART0_Handler>:
  4004d0:	4801      	ldr	r0, [pc, #4]	; (4004d8 <UART0_Handler+0x8>)
  4004d2:	f7ff bfd1 	b.w	400478 <_ZN9UARTClass10IrqHandlerEv>
  4004d6:	bf00      	nop
  4004d8:	20000868 	andcs	r0, r0, r8, ror #16

004004dc <_Z12serialEvent1v>:
  4004dc:	4770      	bx	lr
	...

004004e0 <USART1_Handler>:
  4004e0:	4801      	ldr	r0, [pc, #4]	; (4004e8 <USART1_Handler+0x8>)
  4004e2:	f000 b8eb 	b.w	4006bc <_ZN10USARTClass10IrqHandlerEv>
  4004e6:	bf00      	nop
  4004e8:	200008d0 	ldrdcs	r0, [r0], -r0	; <UNPREDICTABLE>

004004ec <init>:
  4004ec:	b570      	push	{r4, r5, r6, lr}
  4004ee:	4d2b      	ldr	r5, [pc, #172]	; (40059c <init+0xb0>)
  4004f0:	f000 fbb0 	bl	400c54 <SystemInit>
  4004f4:	682b      	ldr	r3, [r5, #0]
  4004f6:	f44f 727a 	mov.w	r2, #1000	; 0x3e8
  4004fa:	fbb3 f3f2 	udiv	r3, r3, r2
  4004fe:	1e5a      	subs	r2, r3, #1
  400500:	4b27      	ldr	r3, [pc, #156]	; (4005a0 <init+0xb4>)
  400502:	21f0      	movs	r1, #240	; 0xf0
  400504:	605a      	str	r2, [r3, #4]
  400506:	4a27      	ldr	r2, [pc, #156]	; (4005a4 <init+0xb8>)
  400508:	2400      	movs	r4, #0
  40050a:	f882 1023 	strb.w	r1, [r2, #35]	; 0x23
  40050e:	2207      	movs	r2, #7
  400510:	609c      	str	r4, [r3, #8]
  400512:	4825      	ldr	r0, [pc, #148]	; (4005a8 <init+0xbc>)
  400514:	601a      	str	r2, [r3, #0]
  400516:	f000 fb8f 	bl	400c38 <WDT_Disable>
  40051a:	f000 fbfd 	bl	400d18 <__libc_init_array>
  40051e:	462e      	mov	r6, r5
  400520:	4620      	mov	r0, r4
  400522:	2100      	movs	r1, #0
  400524:	3401      	adds	r4, #1
  400526:	f7ff fedd 	bl	4002e4 <digitalWrite>
  40052a:	2c1b      	cmp	r4, #27
  40052c:	d1f8      	bne.n	400520 <init+0x34>
  40052e:	4d1f      	ldr	r5, [pc, #124]	; (4005ac <init+0xc0>)
  400530:	481f      	ldr	r0, [pc, #124]	; (4005b0 <init+0xc4>)
  400532:	f04f 34ff 	mov.w	r4, #4294967295
  400536:	f8c0 40a0 	str.w	r4, [r0, #160]	; 0xa0
  40053a:	2260      	movs	r2, #96	; 0x60
  40053c:	2300      	movs	r3, #0
  40053e:	f8c5 40a0 	str.w	r4, [r5, #160]	; 0xa0
  400542:	2101      	movs	r1, #1
  400544:	f000 fa68 	bl	400a18 <PIO_Configure>
  400548:	2000      	movs	r0, #0
  40054a:	2101      	movs	r1, #1
  40054c:	f7ff feca 	bl	4002e4 <digitalWrite>
  400550:	2101      	movs	r1, #1
  400552:	220c      	movs	r2, #12
  400554:	2300      	movs	r3, #0
  400556:	4628      	mov	r0, r5
  400558:	f000 fa5e 	bl	400a18 <PIO_Configure>
  40055c:	201d      	movs	r0, #29
  40055e:	f000 fadb 	bl	400b18 <pmc_enable_periph_clk>
  400562:	6831      	ldr	r1, [r6, #0]
  400564:	4a13      	ldr	r2, [pc, #76]	; (4005b4 <init+0xc8>)
  400566:	230c      	movs	r3, #12
  400568:	4813      	ldr	r0, [pc, #76]	; (4005b8 <init+0xcc>)
  40056a:	f000 f8bb 	bl	4006e4 <adc_init>
  40056e:	2301      	movs	r3, #1
  400570:	4811      	ldr	r0, [pc, #68]	; (4005b8 <init+0xcc>)
  400572:	2100      	movs	r1, #0
  400574:	f44f 1240 	mov.w	r2, #3145728	; 0x300000
  400578:	f000 f902 	bl	400780 <adc_configure_timing>
  40057c:	2100      	movs	r1, #0
  40057e:	460a      	mov	r2, r1
  400580:	480d      	ldr	r0, [pc, #52]	; (4005b8 <init+0xcc>)
  400582:	f000 f8e5 	bl	400750 <adc_configure_trigger>
  400586:	4621      	mov	r1, r4
  400588:	480b      	ldr	r0, [pc, #44]	; (4005b8 <init+0xcc>)
  40058a:	f000 f925 	bl	4007d8 <adc_disable_interrupt>
  40058e:	480a      	ldr	r0, [pc, #40]	; (4005b8 <init+0xcc>)
  400590:	f000 f914 	bl	4007bc <adc_disable_all_channel>
  400594:	e8bd 4070 	ldmia.w	sp!, {r4, r5, r6, lr}
  400598:	f000 b848 	b.w	40062c <analogOutputInit>
  40059c:	20000000 	andcs	r0, r0, r0
  4005a0:	e000e010 	and	lr, r0, r0, lsl r0
  4005a4:	e000ed00 	and	lr, r0, r0, lsl #26
  4005a8:	400e1450 	andmi	r1, lr, r0, asr r4
  4005ac:	400e1000 	andmi	r1, lr, r0
  4005b0:	400e0e00 	andmi	r0, lr, r0, lsl #28
  4005b4:	01312d00 	teqeq	r1, r0, lsl #26
  4005b8:	40038000 	andmi	r8, r3, r0

004005bc <_GLOBAL__sub_I_g_APinDescription>:
  4005bc:	b513      	push	{r0, r1, r4, lr}
  4005be:	4c0c      	ldr	r4, [pc, #48]	; (4005f0 <_GLOBAL__sub_I_g_APinDescription+0x34>)
  4005c0:	4620      	mov	r0, r4
  4005c2:	f7ff ff6d 	bl	4004a0 <_ZN10RingBufferC1Ev>
  4005c6:	2208      	movs	r2, #8
  4005c8:	9400      	str	r4, [sp, #0]
  4005ca:	4c0a      	ldr	r4, [pc, #40]	; (4005f4 <_GLOBAL__sub_I_g_APinDescription+0x38>)
  4005cc:	4613      	mov	r3, r2
  4005ce:	490a      	ldr	r1, [pc, #40]	; (4005f8 <_GLOBAL__sub_I_g_APinDescription+0x3c>)
  4005d0:	480a      	ldr	r0, [pc, #40]	; (4005fc <_GLOBAL__sub_I_g_APinDescription+0x40>)
  4005d2:	f7ff ff13 	bl	4003fc <_ZN9UARTClassC1EP4Uart4IRQnmP10RingBuffer>
  4005d6:	4620      	mov	r0, r4
  4005d8:	f7ff ff62 	bl	4004a0 <_ZN10RingBufferC1Ev>
  4005dc:	220f      	movs	r2, #15
  4005de:	9400      	str	r4, [sp, #0]
  4005e0:	4907      	ldr	r1, [pc, #28]	; (400600 <_GLOBAL__sub_I_g_APinDescription+0x44>)
  4005e2:	4613      	mov	r3, r2
  4005e4:	4807      	ldr	r0, [pc, #28]	; (400604 <_GLOBAL__sub_I_g_APinDescription+0x48>)
  4005e6:	f000 f859 	bl	40069c <_ZN10USARTClassC1EP5Usart4IRQnmP10RingBuffer>
  4005ea:	b002      	add	sp, #8
  4005ec:	bd10      	pop	{r4, pc}
  4005ee:	bf00      	nop
  4005f0:	20000888 	andcs	r0, r0, r8, lsl #17
  4005f4:	200008f0 	strdcs	r0, [r0], -r0	; <UNPREDICTABLE>
  4005f8:	400e0600 	andmi	r0, lr, r0, lsl #12
  4005fc:	20000868 	andcs	r0, r0, r8, ror #16
  400600:	40028000 	andmi	r8, r2, r0
  400604:	200008d0 	ldrdcs	r0, [r0], -r0	; <UNPREDICTABLE>

00400608 <_Z14serialEventRunv>:
  400608:	b508      	push	{r3, lr}
  40060a:	4806      	ldr	r0, [pc, #24]	; (400624 <_Z14serialEventRunv+0x1c>)
  40060c:	f7ff fecb 	bl	4003a6 <_ZN9UARTClass9availableEv>
  400610:	b108      	cbz	r0, 400616 <_Z14serialEventRunv+0xe>
  400612:	f7ff ff5b 	bl	4004cc <_Z11serialEventv>
  400616:	4804      	ldr	r0, [pc, #16]	; (400628 <_Z14serialEventRunv+0x20>)
  400618:	f000 f815 	bl	400646 <_ZN10USARTClass9availableEv>
  40061c:	b108      	cbz	r0, 400622 <_Z14serialEventRunv+0x1a>
  40061e:	f7ff ff5d 	bl	4004dc <_Z12serialEvent1v>
  400622:	bd08      	pop	{r3, pc}
  400624:	20000868 	andcs	r0, r0, r8, ror #16
  400628:	200008d0 	ldrdcs	r0, [r0], -r0	; <UNPREDICTABLE>

0040062c <analogOutputInit>:
  40062c:	2300      	movs	r3, #0
  40062e:	4a03      	ldr	r2, [pc, #12]	; (40063c <analogOutputInit+0x10>)
  400630:	2100      	movs	r1, #0
  400632:	5499      	strb	r1, [r3, r2]
  400634:	3301      	adds	r3, #1
  400636:	2b1b      	cmp	r3, #27
  400638:	d1f9      	bne.n	40062e <analogOutputInit+0x2>
  40063a:	4770      	bx	lr
  40063c:	20000938 	andcs	r0, r0, r8, lsr r9

00400640 <yield>:
  400640:	4770      	bx	lr

00400642 <_ZN10USARTClasscvbEv>:
  400642:	2001      	movs	r0, #1
  400644:	4770      	bx	lr

00400646 <_ZN10USARTClass9availableEv>:
  400646:	6903      	ldr	r3, [r0, #16]
  400648:	6c18      	ldr	r0, [r3, #64]	; 0x40
  40064a:	6c5b      	ldr	r3, [r3, #68]	; 0x44
  40064c:	1ac0      	subs	r0, r0, r3
  40064e:	f000 003f 	and.w	r0, r0, #63	; 0x3f
  400652:	4770      	bx	lr

00400654 <_ZN10USARTClass4peekEv>:
  400654:	6903      	ldr	r3, [r0, #16]
  400656:	6c5a      	ldr	r2, [r3, #68]	; 0x44
  400658:	6c19      	ldr	r1, [r3, #64]	; 0x40
  40065a:	4291      	cmp	r1, r2
  40065c:	bf14      	ite	ne
  40065e:	5c98      	ldrbne	r0, [r3, r2]
  400660:	f04f 30ff 	moveq.w	r0, #4294967295
  400664:	4770      	bx	lr

00400666 <_ZN10USARTClass4readEv>:
  400666:	6903      	ldr	r3, [r0, #16]
  400668:	6c5a      	ldr	r2, [r3, #68]	; 0x44
  40066a:	6c19      	ldr	r1, [r3, #64]	; 0x40
  40066c:	4291      	cmp	r1, r2
  40066e:	d005      	beq.n	40067c <_ZN10USARTClass4readEv+0x16>
  400670:	5c98      	ldrb	r0, [r3, r2]
  400672:	3201      	adds	r2, #1
  400674:	f002 023f 	and.w	r2, r2, #63	; 0x3f
  400678:	645a      	str	r2, [r3, #68]	; 0x44
  40067a:	4770      	bx	lr
  40067c:	f04f 30ff 	mov.w	r0, #4294967295
  400680:	4770      	bx	lr

00400682 <_ZN10USARTClass5flushEv>:
  400682:	6942      	ldr	r2, [r0, #20]
  400684:	6953      	ldr	r3, [r2, #20]
  400686:	079b      	lsls	r3, r3, #30
  400688:	d5fc      	bpl.n	400684 <_ZN10USARTClass5flushEv+0x2>
  40068a:	4770      	bx	lr

0040068c <_ZN10USARTClass5writeEh>:
  40068c:	6943      	ldr	r3, [r0, #20]
  40068e:	695a      	ldr	r2, [r3, #20]
  400690:	0792      	lsls	r2, r2, #30
  400692:	d5fc      	bpl.n	40068e <_ZN10USARTClass5writeEh+0x2>
  400694:	61d9      	str	r1, [r3, #28]
  400696:	2001      	movs	r0, #1
  400698:	4770      	bx	lr
	...

0040069c <_ZN10USARTClassC1EP5Usart4IRQnmP10RingBuffer>:
  40069c:	b530      	push	{r4, r5, lr}
  40069e:	2500      	movs	r5, #0
  4006a0:	6045      	str	r5, [r0, #4]
  4006a2:	f44f 757a 	mov.w	r5, #1000	; 0x3e8
  4006a6:	6085      	str	r5, [r0, #8]
  4006a8:	4d03      	ldr	r5, [pc, #12]	; (4006b8 <_ZN10USARTClassC1EP5Usart4IRQnmP10RingBuffer+0x1c>)
  4006aa:	6141      	str	r1, [r0, #20]
  4006ac:	6005      	str	r5, [r0, #0]
  4006ae:	9d03      	ldr	r5, [sp, #12]
  4006b0:	7602      	strb	r2, [r0, #24]
  4006b2:	6105      	str	r5, [r0, #16]
  4006b4:	61c3      	str	r3, [r0, #28]
  4006b6:	bd30      	pop	{r4, r5, pc}
  4006b8:	00401ac8 	subeq	r1, r0, r8, asr #21

004006bc <_ZN10USARTClass10IrqHandlerEv>:
  4006bc:	b538      	push	{r3, r4, r5, lr}
  4006be:	6943      	ldr	r3, [r0, #20]
  4006c0:	4604      	mov	r4, r0
  4006c2:	695d      	ldr	r5, [r3, #20]
  4006c4:	07ea      	lsls	r2, r5, #31
  4006c6:	d504      	bpl.n	4006d2 <_ZN10USARTClass10IrqHandlerEv+0x16>
  4006c8:	6999      	ldr	r1, [r3, #24]
  4006ca:	6900      	ldr	r0, [r0, #16]
  4006cc:	b2c9      	uxtb	r1, r1
  4006ce:	f7ff fef2 	bl	4004b6 <_ZN10RingBuffer10store_charEh>
  4006d2:	f015 0f60 	tst.w	r5, #96	; 0x60
  4006d6:	d004      	beq.n	4006e2 <_ZN10USARTClass10IrqHandlerEv+0x26>
  4006d8:	6963      	ldr	r3, [r4, #20]
  4006da:	681a      	ldr	r2, [r3, #0]
  4006dc:	f442 7280 	orr.w	r2, r2, #256	; 0x100
  4006e0:	601a      	str	r2, [r3, #0]
  4006e2:	bd38      	pop	{r3, r4, r5, pc}

004006e4 <adc_init>:
  4006e4:	b480      	push	{r7}
  4006e6:	b087      	sub	sp, #28
  4006e8:	af00      	add	r7, sp, #0
  4006ea:	60f8      	str	r0, [r7, #12]
  4006ec:	60b9      	str	r1, [r7, #8]
  4006ee:	607a      	str	r2, [r7, #4]
  4006f0:	70fb      	strb	r3, [r7, #3]
  4006f2:	68fb      	ldr	r3, [r7, #12]
  4006f4:	2201      	movs	r2, #1
  4006f6:	601a      	str	r2, [r3, #0]
  4006f8:	68fb      	ldr	r3, [r7, #12]
  4006fa:	2200      	movs	r2, #0
  4006fc:	605a      	str	r2, [r3, #4]
  4006fe:	68fb      	ldr	r3, [r7, #12]
  400700:	f240 2202 	movw	r2, #514	; 0x202
  400704:	f8c3 2120 	str.w	r2, [r3, #288]	; 0x120
  400708:	68fb      	ldr	r3, [r7, #12]
  40070a:	2200      	movs	r2, #0
  40070c:	f8c3 2104 	str.w	r2, [r3, #260]	; 0x104
  400710:	68fb      	ldr	r3, [r7, #12]
  400712:	2200      	movs	r2, #0
  400714:	f8c3 2114 	str.w	r2, [r3, #276]	; 0x114
  400718:	687b      	ldr	r3, [r7, #4]
  40071a:	005b      	lsls	r3, r3, #1
  40071c:	68ba      	ldr	r2, [r7, #8]
  40071e:	fbb2 f3f3 	udiv	r3, r2, r3
  400722:	3b01      	subs	r3, #1
  400724:	617b      	str	r3, [r7, #20]
  400726:	68fb      	ldr	r3, [r7, #12]
  400728:	685a      	ldr	r2, [r3, #4]
  40072a:	697b      	ldr	r3, [r7, #20]
  40072c:	021b      	lsls	r3, r3, #8
  40072e:	b299      	uxth	r1, r3
  400730:	78fb      	ldrb	r3, [r7, #3]
  400732:	041b      	lsls	r3, r3, #16
  400734:	f403 2370 	and.w	r3, r3, #983040	; 0xf0000
  400738:	430b      	orrs	r3, r1
  40073a:	431a      	orrs	r2, r3
  40073c:	68fb      	ldr	r3, [r7, #12]
  40073e:	605a      	str	r2, [r3, #4]
  400740:	2300      	movs	r3, #0
  400742:	4618      	mov	r0, r3
  400744:	371c      	adds	r7, #28
  400746:	46bd      	mov	sp, r7
  400748:	f85d 7b04 	ldr.w	r7, [sp], #4
  40074c:	4770      	bx	lr
  40074e:	bf00      	nop

00400750 <adc_configure_trigger>:
  400750:	b480      	push	{r7}
  400752:	b083      	sub	sp, #12
  400754:	af00      	add	r7, sp, #0
  400756:	6078      	str	r0, [r7, #4]
  400758:	4613      	mov	r3, r2
  40075a:	460a      	mov	r2, r1
  40075c:	70fa      	strb	r2, [r7, #3]
  40075e:	70bb      	strb	r3, [r7, #2]
  400760:	687b      	ldr	r3, [r7, #4]
  400762:	685a      	ldr	r2, [r3, #4]
  400764:	78f9      	ldrb	r1, [r7, #3]
  400766:	78bb      	ldrb	r3, [r7, #2]
  400768:	01db      	lsls	r3, r3, #7
  40076a:	b2db      	uxtb	r3, r3
  40076c:	430b      	orrs	r3, r1
  40076e:	431a      	orrs	r2, r3
  400770:	687b      	ldr	r3, [r7, #4]
  400772:	605a      	str	r2, [r3, #4]
  400774:	370c      	adds	r7, #12
  400776:	46bd      	mov	sp, r7
  400778:	f85d 7b04 	ldr.w	r7, [sp], #4
  40077c:	4770      	bx	lr
  40077e:	bf00      	nop

00400780 <adc_configure_timing>:
  400780:	b480      	push	{r7}
  400782:	b085      	sub	sp, #20
  400784:	af00      	add	r7, sp, #0
  400786:	60f8      	str	r0, [r7, #12]
  400788:	607a      	str	r2, [r7, #4]
  40078a:	460a      	mov	r2, r1
  40078c:	72fa      	strb	r2, [r7, #11]
  40078e:	72bb      	strb	r3, [r7, #10]
  400790:	68fb      	ldr	r3, [r7, #12]
  400792:	685a      	ldr	r2, [r3, #4]
  400794:	7abb      	ldrb	r3, [r7, #10]
  400796:	071b      	lsls	r3, r3, #28
  400798:	f003 5140 	and.w	r1, r3, #805306368	; 0x30000000
  40079c:	687b      	ldr	r3, [r7, #4]
  40079e:	4319      	orrs	r1, r3
  4007a0:	7afb      	ldrb	r3, [r7, #11]
  4007a2:	061b      	lsls	r3, r3, #24
  4007a4:	f003 6370 	and.w	r3, r3, #251658240	; 0xf000000
  4007a8:	430b      	orrs	r3, r1
  4007aa:	431a      	orrs	r2, r3
  4007ac:	68fb      	ldr	r3, [r7, #12]
  4007ae:	605a      	str	r2, [r3, #4]
  4007b0:	3714      	adds	r7, #20
  4007b2:	46bd      	mov	sp, r7
  4007b4:	f85d 7b04 	ldr.w	r7, [sp], #4
  4007b8:	4770      	bx	lr
  4007ba:	bf00      	nop

004007bc <adc_disable_all_channel>:
  4007bc:	b480      	push	{r7}
  4007be:	b083      	sub	sp, #12
  4007c0:	af00      	add	r7, sp, #0
  4007c2:	6078      	str	r0, [r7, #4]
  4007c4:	687b      	ldr	r3, [r7, #4]
  4007c6:	f64f 72ff 	movw	r2, #65535	; 0xffff
  4007ca:	615a      	str	r2, [r3, #20]
  4007cc:	370c      	adds	r7, #12
  4007ce:	46bd      	mov	sp, r7
  4007d0:	f85d 7b04 	ldr.w	r7, [sp], #4
  4007d4:	4770      	bx	lr
  4007d6:	bf00      	nop

004007d8 <adc_disable_interrupt>:
  4007d8:	b480      	push	{r7}
  4007da:	b083      	sub	sp, #12
  4007dc:	af00      	add	r7, sp, #0
  4007de:	6078      	str	r0, [r7, #4]
  4007e0:	6039      	str	r1, [r7, #0]
  4007e2:	687b      	ldr	r3, [r7, #4]
  4007e4:	683a      	ldr	r2, [r7, #0]
  4007e6:	629a      	str	r2, [r3, #40]	; 0x28
  4007e8:	370c      	adds	r7, #12
  4007ea:	46bd      	mov	sp, r7
  4007ec:	f85d 7b04 	ldr.w	r7, [sp], #4
  4007f0:	4770      	bx	lr
  4007f2:	bf00      	nop

004007f4 <PIO_DisableInterrupt>:
  4007f4:	b480      	push	{r7}
  4007f6:	b083      	sub	sp, #12
  4007f8:	af00      	add	r7, sp, #0
  4007fa:	6078      	str	r0, [r7, #4]
  4007fc:	6039      	str	r1, [r7, #0]
  4007fe:	687b      	ldr	r3, [r7, #4]
  400800:	683a      	ldr	r2, [r7, #0]
  400802:	645a      	str	r2, [r3, #68]	; 0x44
  400804:	370c      	adds	r7, #12
  400806:	46bd      	mov	sp, r7
  400808:	f85d 7b04 	ldr.w	r7, [sp], #4
  40080c:	4770      	bx	lr
  40080e:	bf00      	nop

00400810 <PIO_PullUp>:
  400810:	b480      	push	{r7}
  400812:	b085      	sub	sp, #20
  400814:	af00      	add	r7, sp, #0
  400816:	60f8      	str	r0, [r7, #12]
  400818:	60b9      	str	r1, [r7, #8]
  40081a:	607a      	str	r2, [r7, #4]
  40081c:	687b      	ldr	r3, [r7, #4]
  40081e:	2b00      	cmp	r3, #0
  400820:	d003      	beq.n	40082a <PIO_PullUp+0x1a>
  400822:	68fb      	ldr	r3, [r7, #12]
  400824:	68ba      	ldr	r2, [r7, #8]
  400826:	665a      	str	r2, [r3, #100]	; 0x64
  400828:	e002      	b.n	400830 <PIO_PullUp+0x20>
  40082a:	68fb      	ldr	r3, [r7, #12]
  40082c:	68ba      	ldr	r2, [r7, #8]
  40082e:	661a      	str	r2, [r3, #96]	; 0x60
  400830:	3714      	adds	r7, #20
  400832:	46bd      	mov	sp, r7
  400834:	f85d 7b04 	ldr.w	r7, [sp], #4
  400838:	4770      	bx	lr
  40083a:	bf00      	nop

0040083c <PIO_SetPeripheral>:
  40083c:	b480      	push	{r7}
  40083e:	b087      	sub	sp, #28
  400840:	af00      	add	r7, sp, #0
  400842:	60f8      	str	r0, [r7, #12]
  400844:	460b      	mov	r3, r1
  400846:	607a      	str	r2, [r7, #4]
  400848:	72fb      	strb	r3, [r7, #11]
  40084a:	68fb      	ldr	r3, [r7, #12]
  40084c:	687a      	ldr	r2, [r7, #4]
  40084e:	645a      	str	r2, [r3, #68]	; 0x44
  400850:	7afb      	ldrb	r3, [r7, #11]
  400852:	2b07      	cmp	r3, #7
  400854:	d866      	bhi.n	400924 <PIO_SetPeripheral+0xe8>
  400856:	a201      	add	r2, pc, #4	; (adr r2, 40085c <PIO_SetPeripheral+0x20>)
  400858:	f852 f023 	ldr.w	pc, [r2, r3, lsl #2]
  40085c:	0040092d 	subeq	r0, r0, sp, lsr #18
  400860:	0040087d 	subeq	r0, r0, sp, ror r8
  400864:	004008af 	subeq	r0, r0, pc, lsr #17
  400868:	004008d9 	ldrdeq	r0, [r0], #-137	; 0xffffff77
  40086c:	00400903 	subeq	r0, r0, r3, lsl #18
  400870:	0040092d 	subeq	r0, r0, sp, lsr #18
  400874:	0040092d 	subeq	r0, r0, sp, lsr #18
  400878:	0040092d 	subeq	r0, r0, sp, lsr #18
  40087c:	68fb      	ldr	r3, [r7, #12]
  40087e:	6f1b      	ldr	r3, [r3, #112]	; 0x70
  400880:	617b      	str	r3, [r7, #20]
  400882:	68fb      	ldr	r3, [r7, #12]
  400884:	6f1a      	ldr	r2, [r3, #112]	; 0x70
  400886:	687b      	ldr	r3, [r7, #4]
  400888:	43d9      	mvns	r1, r3
  40088a:	697b      	ldr	r3, [r7, #20]
  40088c:	400b      	ands	r3, r1
  40088e:	401a      	ands	r2, r3
  400890:	68fb      	ldr	r3, [r7, #12]
  400892:	671a      	str	r2, [r3, #112]	; 0x70
  400894:	68fb      	ldr	r3, [r7, #12]
  400896:	6f5b      	ldr	r3, [r3, #116]	; 0x74
  400898:	617b      	str	r3, [r7, #20]
  40089a:	68fb      	ldr	r3, [r7, #12]
  40089c:	6f5a      	ldr	r2, [r3, #116]	; 0x74
  40089e:	687b      	ldr	r3, [r7, #4]
  4008a0:	43d9      	mvns	r1, r3
  4008a2:	697b      	ldr	r3, [r7, #20]
  4008a4:	400b      	ands	r3, r1
  4008a6:	401a      	ands	r2, r3
  4008a8:	68fb      	ldr	r3, [r7, #12]
  4008aa:	675a      	str	r2, [r3, #116]	; 0x74
  4008ac:	e03a      	b.n	400924 <PIO_SetPeripheral+0xe8>
  4008ae:	68fb      	ldr	r3, [r7, #12]
  4008b0:	6f1b      	ldr	r3, [r3, #112]	; 0x70
  4008b2:	617b      	str	r3, [r7, #20]
  4008b4:	687a      	ldr	r2, [r7, #4]
  4008b6:	697b      	ldr	r3, [r7, #20]
  4008b8:	431a      	orrs	r2, r3
  4008ba:	68fb      	ldr	r3, [r7, #12]
  4008bc:	671a      	str	r2, [r3, #112]	; 0x70
  4008be:	68fb      	ldr	r3, [r7, #12]
  4008c0:	6f5b      	ldr	r3, [r3, #116]	; 0x74
  4008c2:	617b      	str	r3, [r7, #20]
  4008c4:	68fb      	ldr	r3, [r7, #12]
  4008c6:	6f5a      	ldr	r2, [r3, #116]	; 0x74
  4008c8:	687b      	ldr	r3, [r7, #4]
  4008ca:	43d9      	mvns	r1, r3
  4008cc:	697b      	ldr	r3, [r7, #20]
  4008ce:	400b      	ands	r3, r1
  4008d0:	401a      	ands	r2, r3
  4008d2:	68fb      	ldr	r3, [r7, #12]
  4008d4:	675a      	str	r2, [r3, #116]	; 0x74
  4008d6:	e025      	b.n	400924 <PIO_SetPeripheral+0xe8>
  4008d8:	68fb      	ldr	r3, [r7, #12]
  4008da:	6f1b      	ldr	r3, [r3, #112]	; 0x70
  4008dc:	617b      	str	r3, [r7, #20]
  4008de:	68fb      	ldr	r3, [r7, #12]
  4008e0:	6f1a      	ldr	r2, [r3, #112]	; 0x70
  4008e2:	687b      	ldr	r3, [r7, #4]
  4008e4:	43d9      	mvns	r1, r3
  4008e6:	697b      	ldr	r3, [r7, #20]
  4008e8:	400b      	ands	r3, r1
  4008ea:	401a      	ands	r2, r3
  4008ec:	68fb      	ldr	r3, [r7, #12]
  4008ee:	671a      	str	r2, [r3, #112]	; 0x70
  4008f0:	68fb      	ldr	r3, [r7, #12]
  4008f2:	6f5b      	ldr	r3, [r3, #116]	; 0x74
  4008f4:	617b      	str	r3, [r7, #20]
  4008f6:	687a      	ldr	r2, [r7, #4]
  4008f8:	697b      	ldr	r3, [r7, #20]
  4008fa:	431a      	orrs	r2, r3
  4008fc:	68fb      	ldr	r3, [r7, #12]
  4008fe:	675a      	str	r2, [r3, #116]	; 0x74
  400900:	e010      	b.n	400924 <PIO_SetPeripheral+0xe8>
  400902:	68fb      	ldr	r3, [r7, #12]
  400904:	6f1b      	ldr	r3, [r3, #112]	; 0x70
  400906:	617b      	str	r3, [r7, #20]
  400908:	687a      	ldr	r2, [r7, #4]
  40090a:	697b      	ldr	r3, [r7, #20]
  40090c:	431a      	orrs	r2, r3
  40090e:	68fb      	ldr	r3, [r7, #12]
  400910:	671a      	str	r2, [r3, #112]	; 0x70
  400912:	68fb      	ldr	r3, [r7, #12]
  400914:	6f5b      	ldr	r3, [r3, #116]	; 0x74
  400916:	617b      	str	r3, [r7, #20]
  400918:	687a      	ldr	r2, [r7, #4]
  40091a:	697b      	ldr	r3, [r7, #20]
  40091c:	431a      	orrs	r2, r3
  40091e:	68fb      	ldr	r3, [r7, #12]
  400920:	675a      	str	r2, [r3, #116]	; 0x74
  400922:	bf00      	nop
  400924:	68fb      	ldr	r3, [r7, #12]
  400926:	687a      	ldr	r2, [r7, #4]
  400928:	605a      	str	r2, [r3, #4]
  40092a:	e000      	b.n	40092e <PIO_SetPeripheral+0xf2>
  40092c:	bf00      	nop
  40092e:	371c      	adds	r7, #28
  400930:	46bd      	mov	sp, r7
  400932:	f85d 7b04 	ldr.w	r7, [sp], #4
  400936:	4770      	bx	lr

00400938 <PIO_SetInput>:
  400938:	b580      	push	{r7, lr}
  40093a:	b084      	sub	sp, #16
  40093c:	af00      	add	r7, sp, #0
  40093e:	60f8      	str	r0, [r7, #12]
  400940:	60b9      	str	r1, [r7, #8]
  400942:	607a      	str	r2, [r7, #4]
  400944:	68f8      	ldr	r0, [r7, #12]
  400946:	68b9      	ldr	r1, [r7, #8]
  400948:	4b18      	ldr	r3, [pc, #96]	; (4009ac <PIO_SetInput+0x74>)
  40094a:	4798      	blx	r3
  40094c:	687b      	ldr	r3, [r7, #4]
  40094e:	f003 0301 	and.w	r3, r3, #1
  400952:	68f8      	ldr	r0, [r7, #12]
  400954:	68b9      	ldr	r1, [r7, #8]
  400956:	461a      	mov	r2, r3
  400958:	4b15      	ldr	r3, [pc, #84]	; (4009b0 <PIO_SetInput+0x78>)
  40095a:	4798      	blx	r3
  40095c:	687b      	ldr	r3, [r7, #4]
  40095e:	f003 030a 	and.w	r3, r3, #10
  400962:	2b00      	cmp	r3, #0
  400964:	d003      	beq.n	40096e <PIO_SetInput+0x36>
  400966:	68fb      	ldr	r3, [r7, #12]
  400968:	68ba      	ldr	r2, [r7, #8]
  40096a:	621a      	str	r2, [r3, #32]
  40096c:	e002      	b.n	400974 <PIO_SetInput+0x3c>
  40096e:	68fb      	ldr	r3, [r7, #12]
  400970:	68ba      	ldr	r2, [r7, #8]
  400972:	625a      	str	r2, [r3, #36]	; 0x24
  400974:	687b      	ldr	r3, [r7, #4]
  400976:	f003 0302 	and.w	r3, r3, #2
  40097a:	2b00      	cmp	r3, #0
  40097c:	d004      	beq.n	400988 <PIO_SetInput+0x50>
  40097e:	68fb      	ldr	r3, [r7, #12]
  400980:	68ba      	ldr	r2, [r7, #8]
  400982:	f8c3 2080 	str.w	r2, [r3, #128]	; 0x80
  400986:	e008      	b.n	40099a <PIO_SetInput+0x62>
  400988:	687b      	ldr	r3, [r7, #4]
  40098a:	f003 0308 	and.w	r3, r3, #8
  40098e:	2b00      	cmp	r3, #0
  400990:	d003      	beq.n	40099a <PIO_SetInput+0x62>
  400992:	68fb      	ldr	r3, [r7, #12]
  400994:	68ba      	ldr	r2, [r7, #8]
  400996:	f8c3 2084 	str.w	r2, [r3, #132]	; 0x84
  40099a:	68fb      	ldr	r3, [r7, #12]
  40099c:	68ba      	ldr	r2, [r7, #8]
  40099e:	615a      	str	r2, [r3, #20]
  4009a0:	68fb      	ldr	r3, [r7, #12]
  4009a2:	68ba      	ldr	r2, [r7, #8]
  4009a4:	601a      	str	r2, [r3, #0]
  4009a6:	3710      	adds	r7, #16
  4009a8:	46bd      	mov	sp, r7
  4009aa:	bd80      	pop	{r7, pc}
  4009ac:	004007f5 	strdeq	r0, [r0], #-117	; 0xffffff8b
  4009b0:	00400811 	subeq	r0, r0, r1, lsl r8

004009b4 <PIO_SetOutput>:
  4009b4:	b580      	push	{r7, lr}
  4009b6:	b084      	sub	sp, #16
  4009b8:	af00      	add	r7, sp, #0
  4009ba:	60f8      	str	r0, [r7, #12]
  4009bc:	60b9      	str	r1, [r7, #8]
  4009be:	607a      	str	r2, [r7, #4]
  4009c0:	603b      	str	r3, [r7, #0]
  4009c2:	68f8      	ldr	r0, [r7, #12]
  4009c4:	68b9      	ldr	r1, [r7, #8]
  4009c6:	4b12      	ldr	r3, [pc, #72]	; (400a10 <PIO_SetOutput+0x5c>)
  4009c8:	4798      	blx	r3
  4009ca:	68f8      	ldr	r0, [r7, #12]
  4009cc:	68b9      	ldr	r1, [r7, #8]
  4009ce:	69ba      	ldr	r2, [r7, #24]
  4009d0:	4b10      	ldr	r3, [pc, #64]	; (400a14 <PIO_SetOutput+0x60>)
  4009d2:	4798      	blx	r3
  4009d4:	683b      	ldr	r3, [r7, #0]
  4009d6:	2b00      	cmp	r3, #0
  4009d8:	d003      	beq.n	4009e2 <PIO_SetOutput+0x2e>
  4009da:	68fb      	ldr	r3, [r7, #12]
  4009dc:	68ba      	ldr	r2, [r7, #8]
  4009de:	651a      	str	r2, [r3, #80]	; 0x50
  4009e0:	e002      	b.n	4009e8 <PIO_SetOutput+0x34>
  4009e2:	68fb      	ldr	r3, [r7, #12]
  4009e4:	68ba      	ldr	r2, [r7, #8]
  4009e6:	655a      	str	r2, [r3, #84]	; 0x54
  4009e8:	687b      	ldr	r3, [r7, #4]
  4009ea:	2b00      	cmp	r3, #0
  4009ec:	d003      	beq.n	4009f6 <PIO_SetOutput+0x42>
  4009ee:	68fb      	ldr	r3, [r7, #12]
  4009f0:	68ba      	ldr	r2, [r7, #8]
  4009f2:	631a      	str	r2, [r3, #48]	; 0x30
  4009f4:	e002      	b.n	4009fc <PIO_SetOutput+0x48>
  4009f6:	68fb      	ldr	r3, [r7, #12]
  4009f8:	68ba      	ldr	r2, [r7, #8]
  4009fa:	635a      	str	r2, [r3, #52]	; 0x34
  4009fc:	68fb      	ldr	r3, [r7, #12]
  4009fe:	68ba      	ldr	r2, [r7, #8]
  400a00:	611a      	str	r2, [r3, #16]
  400a02:	68fb      	ldr	r3, [r7, #12]
  400a04:	68ba      	ldr	r2, [r7, #8]
  400a06:	601a      	str	r2, [r3, #0]
  400a08:	3710      	adds	r7, #16
  400a0a:	46bd      	mov	sp, r7
  400a0c:	bd80      	pop	{r7, pc}
  400a0e:	bf00      	nop
  400a10:	004007f5 	strdeq	r0, [r0], #-117	; 0xffffff8b
  400a14:	00400811 	subeq	r0, r0, r1, lsl r8

00400a18 <PIO_Configure>:
  400a18:	b590      	push	{r4, r7, lr}
  400a1a:	b087      	sub	sp, #28
  400a1c:	af02      	add	r7, sp, #8
  400a1e:	60f8      	str	r0, [r7, #12]
  400a20:	607a      	str	r2, [r7, #4]
  400a22:	603b      	str	r3, [r7, #0]
  400a24:	460b      	mov	r3, r1
  400a26:	72fb      	strb	r3, [r7, #11]
  400a28:	7afb      	ldrb	r3, [r7, #11]
  400a2a:	3b01      	subs	r3, #1
  400a2c:	2b06      	cmp	r3, #6
  400a2e:	d847      	bhi.n	400ac0 <PIO_Configure+0xa8>
  400a30:	a201      	add	r2, pc, #4	; (adr r2, 400a38 <PIO_Configure+0x20>)
  400a32:	f852 f023 	ldr.w	pc, [r2, r3, lsl #2]
  400a36:	bf00      	nop
  400a38:	00400a55 	subeq	r0, r0, r5, asr sl
  400a3c:	00400a55 	subeq	r0, r0, r5, asr sl
  400a40:	00400a55 	subeq	r0, r0, r5, asr sl
  400a44:	00400a55 	subeq	r0, r0, r5, asr sl
  400a48:	00400a7b 	subeq	r0, r0, fp, ror sl
  400a4c:	00400a87 	subeq	r0, r0, r7, lsl #21
  400a50:	00400a87 	subeq	r0, r0, r7, lsl #21
  400a54:	7afb      	ldrb	r3, [r7, #11]
  400a56:	68f8      	ldr	r0, [r7, #12]
  400a58:	4619      	mov	r1, r3
  400a5a:	687a      	ldr	r2, [r7, #4]
  400a5c:	4b1c      	ldr	r3, [pc, #112]	; (400ad0 <PIO_Configure+0xb8>)
  400a5e:	4798      	blx	r3
  400a60:	68f8      	ldr	r0, [r7, #12]
  400a62:	6879      	ldr	r1, [r7, #4]
  400a64:	4b1b      	ldr	r3, [pc, #108]	; (400ad4 <PIO_Configure+0xbc>)
  400a66:	4798      	blx	r3
  400a68:	683b      	ldr	r3, [r7, #0]
  400a6a:	f003 0301 	and.w	r3, r3, #1
  400a6e:	68f8      	ldr	r0, [r7, #12]
  400a70:	6879      	ldr	r1, [r7, #4]
  400a72:	461a      	mov	r2, r3
  400a74:	4b18      	ldr	r3, [pc, #96]	; (400ad8 <PIO_Configure+0xc0>)
  400a76:	4798      	blx	r3
  400a78:	e024      	b.n	400ac4 <PIO_Configure+0xac>
  400a7a:	68f8      	ldr	r0, [r7, #12]
  400a7c:	6879      	ldr	r1, [r7, #4]
  400a7e:	683a      	ldr	r2, [r7, #0]
  400a80:	4b16      	ldr	r3, [pc, #88]	; (400adc <PIO_Configure+0xc4>)
  400a82:	4798      	blx	r3
  400a84:	e01e      	b.n	400ac4 <PIO_Configure+0xac>
  400a86:	7afb      	ldrb	r3, [r7, #11]
  400a88:	2b07      	cmp	r3, #7
  400a8a:	bf14      	ite	ne
  400a8c:	2300      	movne	r3, #0
  400a8e:	2301      	moveq	r3, #1
  400a90:	b2db      	uxtb	r3, r3
  400a92:	461a      	mov	r2, r3
  400a94:	683b      	ldr	r3, [r7, #0]
  400a96:	f003 0304 	and.w	r3, r3, #4
  400a9a:	2b00      	cmp	r3, #0
  400a9c:	bf0c      	ite	eq
  400a9e:	2300      	moveq	r3, #0
  400aa0:	2301      	movne	r3, #1
  400aa2:	b2db      	uxtb	r3, r3
  400aa4:	6839      	ldr	r1, [r7, #0]
  400aa6:	f001 0101 	and.w	r1, r1, #1
  400aaa:	2900      	cmp	r1, #0
  400aac:	bf0c      	ite	eq
  400aae:	2100      	moveq	r1, #0
  400ab0:	2101      	movne	r1, #1
  400ab2:	b2c9      	uxtb	r1, r1
  400ab4:	9100      	str	r1, [sp, #0]
  400ab6:	68f8      	ldr	r0, [r7, #12]
  400ab8:	6879      	ldr	r1, [r7, #4]
  400aba:	4c09      	ldr	r4, [pc, #36]	; (400ae0 <PIO_Configure+0xc8>)
  400abc:	47a0      	blx	r4
  400abe:	e001      	b.n	400ac4 <PIO_Configure+0xac>
  400ac0:	2300      	movs	r3, #0
  400ac2:	e000      	b.n	400ac6 <PIO_Configure+0xae>
  400ac4:	2301      	movs	r3, #1
  400ac6:	4618      	mov	r0, r3
  400ac8:	3714      	adds	r7, #20
  400aca:	46bd      	mov	sp, r7
  400acc:	bd90      	pop	{r4, r7, pc}
  400ace:	bf00      	nop
  400ad0:	0040083d 	subeq	r0, r0, sp, lsr r8
  400ad4:	004007f5 	strdeq	r0, [r0], #-117	; 0xffffff8b
  400ad8:	00400811 	subeq	r0, r0, r1, lsl r8
  400adc:	00400939 	subeq	r0, r0, r9, lsr r9
  400ae0:	004009b5 	strheq	r0, [r0], #-149	; 0xffffff6b

00400ae4 <PIO_GetOutputDataStatus>:
  400ae4:	b480      	push	{r7}
  400ae6:	b083      	sub	sp, #12
  400ae8:	af00      	add	r7, sp, #0
  400aea:	6078      	str	r0, [r7, #4]
  400aec:	6039      	str	r1, [r7, #0]
  400aee:	687b      	ldr	r3, [r7, #4]
  400af0:	689a      	ldr	r2, [r3, #8]
  400af2:	683b      	ldr	r3, [r7, #0]
  400af4:	4013      	ands	r3, r2
  400af6:	2b00      	cmp	r3, #0
  400af8:	d007      	beq.n	400b0a <PIO_GetOutputDataStatus+0x26>
  400afa:	687b      	ldr	r3, [r7, #4]
  400afc:	699a      	ldr	r2, [r3, #24]
  400afe:	683b      	ldr	r3, [r7, #0]
  400b00:	4013      	ands	r3, r2
  400b02:	2b00      	cmp	r3, #0
  400b04:	d001      	beq.n	400b0a <PIO_GetOutputDataStatus+0x26>
  400b06:	2301      	movs	r3, #1
  400b08:	e000      	b.n	400b0c <PIO_GetOutputDataStatus+0x28>
  400b0a:	2300      	movs	r3, #0
  400b0c:	4618      	mov	r0, r3
  400b0e:	370c      	adds	r7, #12
  400b10:	46bd      	mov	sp, r7
  400b12:	f85d 7b04 	ldr.w	r7, [sp], #4
  400b16:	4770      	bx	lr

00400b18 <pmc_enable_periph_clk>:
  400b18:	b480      	push	{r7}
  400b1a:	b083      	sub	sp, #12
  400b1c:	af00      	add	r7, sp, #0
  400b1e:	6078      	str	r0, [r7, #4]
  400b20:	687b      	ldr	r3, [r7, #4]
  400b22:	2b22      	cmp	r3, #34	; 0x22
  400b24:	d901      	bls.n	400b2a <pmc_enable_periph_clk+0x12>
  400b26:	2301      	movs	r3, #1
  400b28:	e02f      	b.n	400b8a <pmc_enable_periph_clk+0x72>
  400b2a:	687b      	ldr	r3, [r7, #4]
  400b2c:	2b1f      	cmp	r3, #31
  400b2e:	d813      	bhi.n	400b58 <pmc_enable_periph_clk+0x40>
  400b30:	4b19      	ldr	r3, [pc, #100]	; (400b98 <pmc_enable_periph_clk+0x80>)
  400b32:	699a      	ldr	r2, [r3, #24]
  400b34:	687b      	ldr	r3, [r7, #4]
  400b36:	2101      	movs	r1, #1
  400b38:	fa01 f303 	lsl.w	r3, r1, r3
  400b3c:	401a      	ands	r2, r3
  400b3e:	687b      	ldr	r3, [r7, #4]
  400b40:	2101      	movs	r1, #1
  400b42:	fa01 f303 	lsl.w	r3, r1, r3
  400b46:	429a      	cmp	r2, r3
  400b48:	d01e      	beq.n	400b88 <pmc_enable_periph_clk+0x70>
  400b4a:	4b13      	ldr	r3, [pc, #76]	; (400b98 <pmc_enable_periph_clk+0x80>)
  400b4c:	687a      	ldr	r2, [r7, #4]
  400b4e:	2101      	movs	r1, #1
  400b50:	fa01 f202 	lsl.w	r2, r1, r2
  400b54:	611a      	str	r2, [r3, #16]
  400b56:	e017      	b.n	400b88 <pmc_enable_periph_clk+0x70>
  400b58:	687b      	ldr	r3, [r7, #4]
  400b5a:	3b20      	subs	r3, #32
  400b5c:	607b      	str	r3, [r7, #4]
  400b5e:	4b0e      	ldr	r3, [pc, #56]	; (400b98 <pmc_enable_periph_clk+0x80>)
  400b60:	f8d3 2108 	ldr.w	r2, [r3, #264]	; 0x108
  400b64:	687b      	ldr	r3, [r7, #4]
  400b66:	2101      	movs	r1, #1
  400b68:	fa01 f303 	lsl.w	r3, r1, r3
  400b6c:	401a      	ands	r2, r3
  400b6e:	687b      	ldr	r3, [r7, #4]
  400b70:	2101      	movs	r1, #1
  400b72:	fa01 f303 	lsl.w	r3, r1, r3
  400b76:	429a      	cmp	r2, r3
  400b78:	d006      	beq.n	400b88 <pmc_enable_periph_clk+0x70>
  400b7a:	4b07      	ldr	r3, [pc, #28]	; (400b98 <pmc_enable_periph_clk+0x80>)
  400b7c:	687a      	ldr	r2, [r7, #4]
  400b7e:	2101      	movs	r1, #1
  400b80:	fa01 f202 	lsl.w	r2, r1, r2
  400b84:	f8c3 2100 	str.w	r2, [r3, #256]	; 0x100
  400b88:	2300      	movs	r3, #0
  400b8a:	4618      	mov	r0, r3
  400b8c:	370c      	adds	r7, #12
  400b8e:	46bd      	mov	sp, r7
  400b90:	f85d 7b04 	ldr.w	r7, [sp], #4
  400b94:	4770      	bx	lr
  400b96:	bf00      	nop
  400b98:	400e0400 	andmi	r0, lr, r0, lsl #8

00400b9c <pmc_disable_periph_clk>:
  400b9c:	b480      	push	{r7}
  400b9e:	b083      	sub	sp, #12
  400ba0:	af00      	add	r7, sp, #0
  400ba2:	6078      	str	r0, [r7, #4]
  400ba4:	687b      	ldr	r3, [r7, #4]
  400ba6:	2b22      	cmp	r3, #34	; 0x22
  400ba8:	d901      	bls.n	400bae <pmc_disable_periph_clk+0x12>
  400baa:	2301      	movs	r3, #1
  400bac:	e02f      	b.n	400c0e <pmc_disable_periph_clk+0x72>
  400bae:	687b      	ldr	r3, [r7, #4]
  400bb0:	2b1f      	cmp	r3, #31
  400bb2:	d813      	bhi.n	400bdc <pmc_disable_periph_clk+0x40>
  400bb4:	4b19      	ldr	r3, [pc, #100]	; (400c1c <pmc_disable_periph_clk+0x80>)
  400bb6:	699a      	ldr	r2, [r3, #24]
  400bb8:	687b      	ldr	r3, [r7, #4]
  400bba:	2101      	movs	r1, #1
  400bbc:	fa01 f303 	lsl.w	r3, r1, r3
  400bc0:	401a      	ands	r2, r3
  400bc2:	687b      	ldr	r3, [r7, #4]
  400bc4:	2101      	movs	r1, #1
  400bc6:	fa01 f303 	lsl.w	r3, r1, r3
  400bca:	429a      	cmp	r2, r3
  400bcc:	d11e      	bne.n	400c0c <pmc_disable_periph_clk+0x70>
  400bce:	4b13      	ldr	r3, [pc, #76]	; (400c1c <pmc_disable_periph_clk+0x80>)
  400bd0:	687a      	ldr	r2, [r7, #4]
  400bd2:	2101      	movs	r1, #1
  400bd4:	fa01 f202 	lsl.w	r2, r1, r2
  400bd8:	615a      	str	r2, [r3, #20]
  400bda:	e017      	b.n	400c0c <pmc_disable_periph_clk+0x70>
  400bdc:	687b      	ldr	r3, [r7, #4]
  400bde:	3b20      	subs	r3, #32
  400be0:	607b      	str	r3, [r7, #4]
  400be2:	4b0e      	ldr	r3, [pc, #56]	; (400c1c <pmc_disable_periph_clk+0x80>)
  400be4:	f8d3 2108 	ldr.w	r2, [r3, #264]	; 0x108
  400be8:	687b      	ldr	r3, [r7, #4]
  400bea:	2101      	movs	r1, #1
  400bec:	fa01 f303 	lsl.w	r3, r1, r3
  400bf0:	401a      	ands	r2, r3
  400bf2:	687b      	ldr	r3, [r7, #4]
  400bf4:	2101      	movs	r1, #1
  400bf6:	fa01 f303 	lsl.w	r3, r1, r3
  400bfa:	429a      	cmp	r2, r3
  400bfc:	d106      	bne.n	400c0c <pmc_disable_periph_clk+0x70>
  400bfe:	4b07      	ldr	r3, [pc, #28]	; (400c1c <pmc_disable_periph_clk+0x80>)
  400c00:	687a      	ldr	r2, [r7, #4]
  400c02:	2101      	movs	r1, #1
  400c04:	fa01 f202 	lsl.w	r2, r1, r2
  400c08:	f8c3 2104 	str.w	r2, [r3, #260]	; 0x104
  400c0c:	2300      	movs	r3, #0
  400c0e:	4618      	mov	r0, r3
  400c10:	370c      	adds	r7, #12
  400c12:	46bd      	mov	sp, r7
  400c14:	f85d 7b04 	ldr.w	r7, [sp], #4
  400c18:	4770      	bx	lr
  400c1a:	bf00      	nop
  400c1c:	400e0400 	andmi	r0, lr, r0, lsl #8

00400c20 <GetTickCount>:
  400c20:	b480      	push	{r7}
  400c22:	af00      	add	r7, sp, #0
  400c24:	4b03      	ldr	r3, [pc, #12]	; (400c34 <GetTickCount+0x14>)
  400c26:	681b      	ldr	r3, [r3, #0]
  400c28:	4618      	mov	r0, r3
  400c2a:	46bd      	mov	sp, r7
  400c2c:	f85d 7b04 	ldr.w	r7, [sp], #4
  400c30:	4770      	bx	lr
  400c32:	bf00      	nop
  400c34:	20000954 	andcs	r0, r0, r4, asr r9

00400c38 <WDT_Disable>:
  400c38:	b480      	push	{r7}
  400c3a:	b083      	sub	sp, #12
  400c3c:	af00      	add	r7, sp, #0
  400c3e:	6078      	str	r0, [r7, #4]
  400c40:	687b      	ldr	r3, [r7, #4]
  400c42:	f44f 4200 	mov.w	r2, #32768	; 0x8000
  400c46:	605a      	str	r2, [r3, #4]
  400c48:	370c      	adds	r7, #12
  400c4a:	46bd      	mov	sp, r7
  400c4c:	f85d 7b04 	ldr.w	r7, [sp], #4
  400c50:	4770      	bx	lr
  400c52:	bf00      	nop

00400c54 <SystemInit>:
  400c54:	b480      	push	{r7}
  400c56:	af00      	add	r7, sp, #0
  400c58:	4b28      	ldr	r3, [pc, #160]	; (400cfc <SystemInit+0xa8>)
  400c5a:	f44f 7240 	mov.w	r2, #768	; 0x300
  400c5e:	601a      	str	r2, [r3, #0]
  400c60:	4b27      	ldr	r3, [pc, #156]	; (400d00 <SystemInit+0xac>)
  400c62:	6a1b      	ldr	r3, [r3, #32]
  400c64:	f003 7380 	and.w	r3, r3, #16777216	; 0x1000000
  400c68:	2b00      	cmp	r3, #0
  400c6a:	d109      	bne.n	400c80 <SystemInit+0x2c>
  400c6c:	4b24      	ldr	r3, [pc, #144]	; (400d00 <SystemInit+0xac>)
  400c6e:	4a25      	ldr	r2, [pc, #148]	; (400d04 <SystemInit+0xb0>)
  400c70:	621a      	str	r2, [r3, #32]
  400c72:	bf00      	nop
  400c74:	4b22      	ldr	r3, [pc, #136]	; (400d00 <SystemInit+0xac>)
  400c76:	6e9b      	ldr	r3, [r3, #104]	; 0x68
  400c78:	f003 0301 	and.w	r3, r3, #1
  400c7c:	2b00      	cmp	r3, #0
  400c7e:	d0f9      	beq.n	400c74 <SystemInit+0x20>
  400c80:	4b1f      	ldr	r3, [pc, #124]	; (400d00 <SystemInit+0xac>)
  400c82:	4a21      	ldr	r2, [pc, #132]	; (400d08 <SystemInit+0xb4>)
  400c84:	621a      	str	r2, [r3, #32]
  400c86:	bf00      	nop
  400c88:	4b1d      	ldr	r3, [pc, #116]	; (400d00 <SystemInit+0xac>)
  400c8a:	6e9b      	ldr	r3, [r3, #104]	; 0x68
  400c8c:	f403 3380 	and.w	r3, r3, #65536	; 0x10000
  400c90:	2b00      	cmp	r3, #0
  400c92:	d0f9      	beq.n	400c88 <SystemInit+0x34>
  400c94:	4b1a      	ldr	r3, [pc, #104]	; (400d00 <SystemInit+0xac>)
  400c96:	4a1a      	ldr	r2, [pc, #104]	; (400d00 <SystemInit+0xac>)
  400c98:	6b12      	ldr	r2, [r2, #48]	; 0x30
  400c9a:	f022 0203 	bic.w	r2, r2, #3
  400c9e:	f042 0201 	orr.w	r2, r2, #1
  400ca2:	631a      	str	r2, [r3, #48]	; 0x30
  400ca4:	bf00      	nop
  400ca6:	4b16      	ldr	r3, [pc, #88]	; (400d00 <SystemInit+0xac>)
  400ca8:	6e9b      	ldr	r3, [r3, #104]	; 0x68
  400caa:	f003 0308 	and.w	r3, r3, #8
  400cae:	2b00      	cmp	r3, #0
  400cb0:	d0f9      	beq.n	400ca6 <SystemInit+0x52>
  400cb2:	4b13      	ldr	r3, [pc, #76]	; (400d00 <SystemInit+0xac>)
  400cb4:	4a15      	ldr	r2, [pc, #84]	; (400d0c <SystemInit+0xb8>)
  400cb6:	629a      	str	r2, [r3, #40]	; 0x28
  400cb8:	bf00      	nop
  400cba:	4b11      	ldr	r3, [pc, #68]	; (400d00 <SystemInit+0xac>)
  400cbc:	6e9b      	ldr	r3, [r3, #104]	; 0x68
  400cbe:	f003 0302 	and.w	r3, r3, #2
  400cc2:	2b00      	cmp	r3, #0
  400cc4:	d0f9      	beq.n	400cba <SystemInit+0x66>
  400cc6:	4b0e      	ldr	r3, [pc, #56]	; (400d00 <SystemInit+0xac>)
  400cc8:	2211      	movs	r2, #17
  400cca:	631a      	str	r2, [r3, #48]	; 0x30
  400ccc:	bf00      	nop
  400cce:	4b0c      	ldr	r3, [pc, #48]	; (400d00 <SystemInit+0xac>)
  400cd0:	6e9b      	ldr	r3, [r3, #104]	; 0x68
  400cd2:	f003 0308 	and.w	r3, r3, #8
  400cd6:	2b00      	cmp	r3, #0
  400cd8:	d0f9      	beq.n	400cce <SystemInit+0x7a>
  400cda:	4b09      	ldr	r3, [pc, #36]	; (400d00 <SystemInit+0xac>)
  400cdc:	2212      	movs	r2, #18
  400cde:	631a      	str	r2, [r3, #48]	; 0x30
  400ce0:	bf00      	nop
  400ce2:	4b07      	ldr	r3, [pc, #28]	; (400d00 <SystemInit+0xac>)
  400ce4:	6e9b      	ldr	r3, [r3, #104]	; 0x68
  400ce6:	f003 0308 	and.w	r3, r3, #8
  400cea:	2b00      	cmp	r3, #0
  400cec:	d0f9      	beq.n	400ce2 <SystemInit+0x8e>
  400cee:	4b08      	ldr	r3, [pc, #32]	; (400d10 <SystemInit+0xbc>)
  400cf0:	4a08      	ldr	r2, [pc, #32]	; (400d14 <SystemInit+0xc0>)
  400cf2:	601a      	str	r2, [r3, #0]
  400cf4:	46bd      	mov	sp, r7
  400cf6:	f85d 7b04 	ldr.w	r7, [sp], #4
  400cfa:	4770      	bx	lr
  400cfc:	400e0a00 	andmi	r0, lr, r0, lsl #20
  400d00:	400e0400 	andmi	r0, lr, r0, lsl #8
  400d04:	00370809 	eorseq	r0, r7, r9, lsl #16
  400d08:	01370809 	teqeq	r7, r9, lsl #16
  400d0c:	201f3f03 	andscs	r3, pc, r3, lsl #30
  400d10:	20000000 	andcs	r0, r0, r0
  400d14:	03d09000 	bicseq	r9, r0, #0

00400d18 <__libc_init_array>:
  400d18:	b570      	push	{r4, r5, r6, lr}
  400d1a:	4e0f      	ldr	r6, [pc, #60]	; (400d58 <__libc_init_array+0x40>)
  400d1c:	4d0f      	ldr	r5, [pc, #60]	; (400d5c <__libc_init_array+0x44>)
  400d1e:	1b76      	subs	r6, r6, r5
  400d20:	10b6      	asrs	r6, r6, #2
  400d22:	d007      	beq.n	400d34 <__libc_init_array+0x1c>
  400d24:	3d04      	subs	r5, #4
  400d26:	2400      	movs	r4, #0
  400d28:	3401      	adds	r4, #1
  400d2a:	f855 3f04 	ldr.w	r3, [r5, #4]!
  400d2e:	4798      	blx	r3
  400d30:	42a6      	cmp	r6, r4
  400d32:	d1f9      	bne.n	400d28 <__libc_init_array+0x10>
  400d34:	4e0a      	ldr	r6, [pc, #40]	; (400d60 <__libc_init_array+0x48>)
  400d36:	4d0b      	ldr	r5, [pc, #44]	; (400d64 <__libc_init_array+0x4c>)
  400d38:	f000 feda 	bl	401af0 <_init>
  400d3c:	1b76      	subs	r6, r6, r5
  400d3e:	10b6      	asrs	r6, r6, #2
  400d40:	d008      	beq.n	400d54 <__libc_init_array+0x3c>
  400d42:	3d04      	subs	r5, #4
  400d44:	2400      	movs	r4, #0
  400d46:	3401      	adds	r4, #1
  400d48:	f855 3f04 	ldr.w	r3, [r5, #4]!
  400d4c:	4798      	blx	r3
  400d4e:	42a6      	cmp	r6, r4
  400d50:	d1f9      	bne.n	400d46 <__libc_init_array+0x2e>
  400d52:	bd70      	pop	{r4, r5, r6, pc}
  400d54:	bd70      	pop	{r4, r5, r6, pc}
  400d56:	bf00      	nop
  400d58:	00401afc 	strdeq	r1, [r0], #-172	; 0xffffff54
  400d5c:	00401afc 	strdeq	r1, [r0], #-172	; 0xffffff54
  400d60:	00401b08 	subeq	r1, r0, r8, lsl #22
  400d64:	00401afc 	strdeq	r1, [r0], #-172	; 0xffffff54

00400d68 <malloc>:
  400d68:	4b02      	ldr	r3, [pc, #8]	; (400d74 <malloc+0xc>)
  400d6a:	4601      	mov	r1, r0
  400d6c:	6818      	ldr	r0, [r3, #0]
  400d6e:	f000 b803 	b.w	400d78 <_malloc_r>
  400d72:	bf00      	nop
  400d74:	20000430 	andcs	r0, r0, r0, lsr r4

00400d78 <_malloc_r>:
  400d78:	e92d 4ff0 	stmdb	sp!, {r4, r5, r6, r7, r8, r9, sl, fp, lr}
  400d7c:	f101 050b 	add.w	r5, r1, #11
  400d80:	2d16      	cmp	r5, #22
  400d82:	b083      	sub	sp, #12
  400d84:	4606      	mov	r6, r0
  400d86:	d927      	bls.n	400dd8 <_malloc_r+0x60>
  400d88:	f035 0507 	bics.w	r5, r5, #7
  400d8c:	d427      	bmi.n	400dde <_malloc_r+0x66>
  400d8e:	42a9      	cmp	r1, r5
  400d90:	d825      	bhi.n	400dde <_malloc_r+0x66>
  400d92:	4630      	mov	r0, r6
  400d94:	f000 fad6 	bl	401344 <__malloc_lock>
  400d98:	f5b5 7ffc 	cmp.w	r5, #504	; 0x1f8
  400d9c:	d226      	bcs.n	400dec <_malloc_r+0x74>
  400d9e:	4fc1      	ldr	r7, [pc, #772]	; (4010a4 <_malloc_r+0x32c>)
  400da0:	ea4f 0cd5 	mov.w	ip, r5, lsr #3
  400da4:	eb07 03cc 	add.w	r3, r7, ip, lsl #3
  400da8:	68dc      	ldr	r4, [r3, #12]
  400daa:	429c      	cmp	r4, r3
  400dac:	f000 81d2 	beq.w	401154 <_malloc_r+0x3dc>
  400db0:	6863      	ldr	r3, [r4, #4]
  400db2:	68e2      	ldr	r2, [r4, #12]
  400db4:	f023 0303 	bic.w	r3, r3, #3
  400db8:	4423      	add	r3, r4
  400dba:	6858      	ldr	r0, [r3, #4]
  400dbc:	68a1      	ldr	r1, [r4, #8]
  400dbe:	f040 0501 	orr.w	r5, r0, #1
  400dc2:	60ca      	str	r2, [r1, #12]
  400dc4:	4630      	mov	r0, r6
  400dc6:	6091      	str	r1, [r2, #8]
  400dc8:	605d      	str	r5, [r3, #4]
  400dca:	f000 fabd 	bl	401348 <__malloc_unlock>
  400dce:	3408      	adds	r4, #8
  400dd0:	4620      	mov	r0, r4
  400dd2:	b003      	add	sp, #12
  400dd4:	e8bd 8ff0 	ldmia.w	sp!, {r4, r5, r6, r7, r8, r9, sl, fp, pc}
  400dd8:	2510      	movs	r5, #16
  400dda:	42a9      	cmp	r1, r5
  400ddc:	d9d9      	bls.n	400d92 <_malloc_r+0x1a>
  400dde:	2400      	movs	r4, #0
  400de0:	230c      	movs	r3, #12
  400de2:	4620      	mov	r0, r4
  400de4:	6033      	str	r3, [r6, #0]
  400de6:	b003      	add	sp, #12
  400de8:	e8bd 8ff0 	ldmia.w	sp!, {r4, r5, r6, r7, r8, r9, sl, fp, pc}
  400dec:	ea5f 2c55 	movs.w	ip, r5, lsr #9
  400df0:	f000 8089 	beq.w	400f06 <_malloc_r+0x18e>
  400df4:	f1bc 0f04 	cmp.w	ip, #4
  400df8:	f200 8160 	bhi.w	4010bc <_malloc_r+0x344>
  400dfc:	ea4f 1c95 	mov.w	ip, r5, lsr #6
  400e00:	f10c 0c38 	add.w	ip, ip, #56	; 0x38
  400e04:	ea4f 014c 	mov.w	r1, ip, lsl #1
  400e08:	4fa6      	ldr	r7, [pc, #664]	; (4010a4 <_malloc_r+0x32c>)
  400e0a:	eb07 0181 	add.w	r1, r7, r1, lsl #2
  400e0e:	68cc      	ldr	r4, [r1, #12]
  400e10:	42a1      	cmp	r1, r4
  400e12:	d105      	bne.n	400e20 <_malloc_r+0xa8>
  400e14:	e00c      	b.n	400e30 <_malloc_r+0xb8>
  400e16:	2b00      	cmp	r3, #0
  400e18:	da79      	bge.n	400f0e <_malloc_r+0x196>
  400e1a:	68e4      	ldr	r4, [r4, #12]
  400e1c:	42a1      	cmp	r1, r4
  400e1e:	d007      	beq.n	400e30 <_malloc_r+0xb8>
  400e20:	6862      	ldr	r2, [r4, #4]
  400e22:	f022 0203 	bic.w	r2, r2, #3
  400e26:	1b53      	subs	r3, r2, r5
  400e28:	2b0f      	cmp	r3, #15
  400e2a:	ddf4      	ble.n	400e16 <_malloc_r+0x9e>
  400e2c:	f10c 3cff 	add.w	ip, ip, #4294967295
  400e30:	f10c 0c01 	add.w	ip, ip, #1
  400e34:	4b9b      	ldr	r3, [pc, #620]	; (4010a4 <_malloc_r+0x32c>)
  400e36:	693c      	ldr	r4, [r7, #16]
  400e38:	f103 0e08 	add.w	lr, r3, #8
  400e3c:	4574      	cmp	r4, lr
  400e3e:	f000 817e 	beq.w	40113e <_malloc_r+0x3c6>
  400e42:	6861      	ldr	r1, [r4, #4]
  400e44:	f021 0103 	bic.w	r1, r1, #3
  400e48:	1b4a      	subs	r2, r1, r5
  400e4a:	2a0f      	cmp	r2, #15
  400e4c:	f300 8164 	bgt.w	401118 <_malloc_r+0x3a0>
  400e50:	2a00      	cmp	r2, #0
  400e52:	f8c3 e014 	str.w	lr, [r3, #20]
  400e56:	f8c3 e010 	str.w	lr, [r3, #16]
  400e5a:	da69      	bge.n	400f30 <_malloc_r+0x1b8>
  400e5c:	f5b1 7f00 	cmp.w	r1, #512	; 0x200
  400e60:	f080 813a 	bcs.w	4010d8 <_malloc_r+0x360>
  400e64:	08c9      	lsrs	r1, r1, #3
  400e66:	108a      	asrs	r2, r1, #2
  400e68:	f04f 0801 	mov.w	r8, #1
  400e6c:	fa08 f802 	lsl.w	r8, r8, r2
  400e70:	eb03 01c1 	add.w	r1, r3, r1, lsl #3
  400e74:	685a      	ldr	r2, [r3, #4]
  400e76:	6888      	ldr	r0, [r1, #8]
  400e78:	ea48 0202 	orr.w	r2, r8, r2
  400e7c:	60a0      	str	r0, [r4, #8]
  400e7e:	60e1      	str	r1, [r4, #12]
  400e80:	605a      	str	r2, [r3, #4]
  400e82:	608c      	str	r4, [r1, #8]
  400e84:	60c4      	str	r4, [r0, #12]
  400e86:	ea4f 03ac 	mov.w	r3, ip, asr #2
  400e8a:	2001      	movs	r0, #1
  400e8c:	4098      	lsls	r0, r3
  400e8e:	4290      	cmp	r0, r2
  400e90:	d85b      	bhi.n	400f4a <_malloc_r+0x1d2>
  400e92:	4202      	tst	r2, r0
  400e94:	d106      	bne.n	400ea4 <_malloc_r+0x12c>
  400e96:	f02c 0c03 	bic.w	ip, ip, #3
  400e9a:	0040      	lsls	r0, r0, #1
  400e9c:	4202      	tst	r2, r0
  400e9e:	f10c 0c04 	add.w	ip, ip, #4
  400ea2:	d0fa      	beq.n	400e9a <_malloc_r+0x122>
  400ea4:	eb07 08cc 	add.w	r8, r7, ip, lsl #3
  400ea8:	4644      	mov	r4, r8
  400eaa:	46e1      	mov	r9, ip
  400eac:	68e3      	ldr	r3, [r4, #12]
  400eae:	429c      	cmp	r4, r3
  400eb0:	d107      	bne.n	400ec2 <_malloc_r+0x14a>
  400eb2:	e146      	b.n	401142 <_malloc_r+0x3ca>
  400eb4:	2a00      	cmp	r2, #0
  400eb6:	f280 8157 	bge.w	401168 <_malloc_r+0x3f0>
  400eba:	68db      	ldr	r3, [r3, #12]
  400ebc:	429c      	cmp	r4, r3
  400ebe:	f000 8140 	beq.w	401142 <_malloc_r+0x3ca>
  400ec2:	6859      	ldr	r1, [r3, #4]
  400ec4:	f021 0103 	bic.w	r1, r1, #3
  400ec8:	1b4a      	subs	r2, r1, r5
  400eca:	2a0f      	cmp	r2, #15
  400ecc:	ddf2      	ble.n	400eb4 <_malloc_r+0x13c>
  400ece:	461c      	mov	r4, r3
  400ed0:	f854 cf08 	ldr.w	ip, [r4, #8]!
  400ed4:	68d9      	ldr	r1, [r3, #12]
  400ed6:	f045 0901 	orr.w	r9, r5, #1
  400eda:	f042 0801 	orr.w	r8, r2, #1
  400ede:	441d      	add	r5, r3
  400ee0:	f8c3 9004 	str.w	r9, [r3, #4]
  400ee4:	4630      	mov	r0, r6
  400ee6:	f8cc 100c 	str.w	r1, [ip, #12]
  400eea:	f8c1 c008 	str.w	ip, [r1, #8]
  400eee:	617d      	str	r5, [r7, #20]
  400ef0:	613d      	str	r5, [r7, #16]
  400ef2:	f8c5 e00c 	str.w	lr, [r5, #12]
  400ef6:	f8c5 e008 	str.w	lr, [r5, #8]
  400efa:	f8c5 8004 	str.w	r8, [r5, #4]
  400efe:	50aa      	str	r2, [r5, r2]
  400f00:	f000 fa22 	bl	401348 <__malloc_unlock>
  400f04:	e764      	b.n	400dd0 <_malloc_r+0x58>
  400f06:	217e      	movs	r1, #126	; 0x7e
  400f08:	f04f 0c3f 	mov.w	ip, #63	; 0x3f
  400f0c:	e77c      	b.n	400e08 <_malloc_r+0x90>
  400f0e:	4422      	add	r2, r4
  400f10:	6850      	ldr	r0, [r2, #4]
  400f12:	68e3      	ldr	r3, [r4, #12]
  400f14:	68a1      	ldr	r1, [r4, #8]
  400f16:	f040 0501 	orr.w	r5, r0, #1
  400f1a:	60cb      	str	r3, [r1, #12]
  400f1c:	4630      	mov	r0, r6
  400f1e:	6099      	str	r1, [r3, #8]
  400f20:	6055      	str	r5, [r2, #4]
  400f22:	f000 fa11 	bl	401348 <__malloc_unlock>
  400f26:	3408      	adds	r4, #8
  400f28:	4620      	mov	r0, r4
  400f2a:	b003      	add	sp, #12
  400f2c:	e8bd 8ff0 	ldmia.w	sp!, {r4, r5, r6, r7, r8, r9, sl, fp, pc}
  400f30:	4421      	add	r1, r4
  400f32:	684b      	ldr	r3, [r1, #4]
  400f34:	4630      	mov	r0, r6
  400f36:	f043 0301 	orr.w	r3, r3, #1
  400f3a:	604b      	str	r3, [r1, #4]
  400f3c:	f000 fa04 	bl	401348 <__malloc_unlock>
  400f40:	3408      	adds	r4, #8
  400f42:	4620      	mov	r0, r4
  400f44:	b003      	add	sp, #12
  400f46:	e8bd 8ff0 	ldmia.w	sp!, {r4, r5, r6, r7, r8, r9, sl, fp, pc}
  400f4a:	68bc      	ldr	r4, [r7, #8]
  400f4c:	6863      	ldr	r3, [r4, #4]
  400f4e:	f023 0903 	bic.w	r9, r3, #3
  400f52:	45a9      	cmp	r9, r5
  400f54:	d304      	bcc.n	400f60 <_malloc_r+0x1e8>
  400f56:	ebc5 0309 	rsb	r3, r5, r9
  400f5a:	2b0f      	cmp	r3, #15
  400f5c:	f300 8091 	bgt.w	401082 <_malloc_r+0x30a>
  400f60:	4b51      	ldr	r3, [pc, #324]	; (4010a8 <_malloc_r+0x330>)
  400f62:	4a52      	ldr	r2, [pc, #328]	; (4010ac <_malloc_r+0x334>)
  400f64:	6819      	ldr	r1, [r3, #0]
  400f66:	6813      	ldr	r3, [r2, #0]
  400f68:	eb05 0a01 	add.w	sl, r5, r1
  400f6c:	3301      	adds	r3, #1
  400f6e:	eb04 0b09 	add.w	fp, r4, r9
  400f72:	f000 8161 	beq.w	401238 <_malloc_r+0x4c0>
  400f76:	f50a 5a80 	add.w	sl, sl, #4096	; 0x1000
  400f7a:	f10a 0a0f 	add.w	sl, sl, #15
  400f7e:	f42a 6a7f 	bic.w	sl, sl, #4080	; 0xff0
  400f82:	f02a 0a0f 	bic.w	sl, sl, #15
  400f86:	4630      	mov	r0, r6
  400f88:	4651      	mov	r1, sl
  400f8a:	9201      	str	r2, [sp, #4]
  400f8c:	f000 f9de 	bl	40134c <_sbrk_r>
  400f90:	f1b0 3fff 	cmp.w	r0, #4294967295
  400f94:	4680      	mov	r8, r0
  400f96:	9a01      	ldr	r2, [sp, #4]
  400f98:	f000 8101 	beq.w	40119e <_malloc_r+0x426>
  400f9c:	4583      	cmp	fp, r0
  400f9e:	f200 80fb 	bhi.w	401198 <_malloc_r+0x420>
  400fa2:	f8df c114 	ldr.w	ip, [pc, #276]	; 4010b8 <_malloc_r+0x340>
  400fa6:	45c3      	cmp	fp, r8
  400fa8:	f8dc 3000 	ldr.w	r3, [ip]
  400fac:	4453      	add	r3, sl
  400fae:	f8cc 3000 	str.w	r3, [ip]
  400fb2:	f000 814a 	beq.w	40124a <_malloc_r+0x4d2>
  400fb6:	6812      	ldr	r2, [r2, #0]
  400fb8:	493c      	ldr	r1, [pc, #240]	; (4010ac <_malloc_r+0x334>)
  400fba:	3201      	adds	r2, #1
  400fbc:	bf1b      	ittet	ne
  400fbe:	ebcb 0b08 	rsbne	fp, fp, r8
  400fc2:	445b      	addne	r3, fp
  400fc4:	f8c1 8000 	streq.w	r8, [r1]
  400fc8:	f8cc 3000 	strne.w	r3, [ip]
  400fcc:	f018 0307 	ands.w	r3, r8, #7
  400fd0:	f000 8114 	beq.w	4011fc <_malloc_r+0x484>
  400fd4:	f1c3 0208 	rsb	r2, r3, #8
  400fd8:	f5c3 5380 	rsb	r3, r3, #4096	; 0x1000
  400fdc:	4490      	add	r8, r2
  400fde:	3308      	adds	r3, #8
  400fe0:	44c2      	add	sl, r8
  400fe2:	f3ca 0a0b 	ubfx	sl, sl, #0, #12
  400fe6:	ebca 0a03 	rsb	sl, sl, r3
  400fea:	4651      	mov	r1, sl
  400fec:	4630      	mov	r0, r6
  400fee:	f8cd c004 	str.w	ip, [sp, #4]
  400ff2:	f000 f9ab 	bl	40134c <_sbrk_r>
  400ff6:	1c43      	adds	r3, r0, #1
  400ff8:	f8dd c004 	ldr.w	ip, [sp, #4]
  400ffc:	f000 8135 	beq.w	40126a <_malloc_r+0x4f2>
  401000:	ebc8 0200 	rsb	r2, r8, r0
  401004:	4452      	add	r2, sl
  401006:	f042 0201 	orr.w	r2, r2, #1
  40100a:	f8dc 3000 	ldr.w	r3, [ip]
  40100e:	42bc      	cmp	r4, r7
  401010:	4453      	add	r3, sl
  401012:	f8c7 8008 	str.w	r8, [r7, #8]
  401016:	f8cc 3000 	str.w	r3, [ip]
  40101a:	f8c8 2004 	str.w	r2, [r8, #4]
  40101e:	f8df a098 	ldr.w	sl, [pc, #152]	; 4010b8 <_malloc_r+0x340>
  401022:	d015      	beq.n	401050 <_malloc_r+0x2d8>
  401024:	f1b9 0f0f 	cmp.w	r9, #15
  401028:	f240 80eb 	bls.w	401202 <_malloc_r+0x48a>
  40102c:	6861      	ldr	r1, [r4, #4]
  40102e:	f1a9 020c 	sub.w	r2, r9, #12
  401032:	f022 0207 	bic.w	r2, r2, #7
  401036:	f001 0101 	and.w	r1, r1, #1
  40103a:	ea42 0e01 	orr.w	lr, r2, r1
  40103e:	2005      	movs	r0, #5
  401040:	18a1      	adds	r1, r4, r2
  401042:	2a0f      	cmp	r2, #15
  401044:	f8c4 e004 	str.w	lr, [r4, #4]
  401048:	6048      	str	r0, [r1, #4]
  40104a:	6088      	str	r0, [r1, #8]
  40104c:	f200 8111 	bhi.w	401272 <_malloc_r+0x4fa>
  401050:	4a17      	ldr	r2, [pc, #92]	; (4010b0 <_malloc_r+0x338>)
  401052:	68bc      	ldr	r4, [r7, #8]
  401054:	6811      	ldr	r1, [r2, #0]
  401056:	428b      	cmp	r3, r1
  401058:	bf88      	it	hi
  40105a:	6013      	strhi	r3, [r2, #0]
  40105c:	4a15      	ldr	r2, [pc, #84]	; (4010b4 <_malloc_r+0x33c>)
  40105e:	6811      	ldr	r1, [r2, #0]
  401060:	428b      	cmp	r3, r1
  401062:	bf88      	it	hi
  401064:	6013      	strhi	r3, [r2, #0]
  401066:	6862      	ldr	r2, [r4, #4]
  401068:	f022 0203 	bic.w	r2, r2, #3
  40106c:	4295      	cmp	r5, r2
  40106e:	ebc5 0302 	rsb	r3, r5, r2
  401072:	d801      	bhi.n	401078 <_malloc_r+0x300>
  401074:	2b0f      	cmp	r3, #15
  401076:	dc04      	bgt.n	401082 <_malloc_r+0x30a>
  401078:	4630      	mov	r0, r6
  40107a:	f000 f965 	bl	401348 <__malloc_unlock>
  40107e:	2400      	movs	r4, #0
  401080:	e6a6      	b.n	400dd0 <_malloc_r+0x58>
  401082:	f045 0201 	orr.w	r2, r5, #1
  401086:	f043 0301 	orr.w	r3, r3, #1
  40108a:	4425      	add	r5, r4
  40108c:	6062      	str	r2, [r4, #4]
  40108e:	4630      	mov	r0, r6
  401090:	60bd      	str	r5, [r7, #8]
  401092:	606b      	str	r3, [r5, #4]
  401094:	f000 f958 	bl	401348 <__malloc_unlock>
  401098:	3408      	adds	r4, #8
  40109a:	4620      	mov	r0, r4
  40109c:	b003      	add	sp, #12
  40109e:	e8bd 8ff0 	ldmia.w	sp!, {r4, r5, r6, r7, r8, r9, sl, fp, pc}
  4010a2:	bf00      	nop
  4010a4:	20000434 	andcs	r0, r0, r4, lsr r4
  4010a8:	20000960 	andcs	r0, r0, r0, ror #18
  4010ac:	20000840 	andcs	r0, r0, r0, asr #16
  4010b0:	2000095c 	andcs	r0, r0, ip, asr r9
  4010b4:	20000958 	andcs	r0, r0, r8, asr r9
  4010b8:	20000964 	andcs	r0, r0, r4, ror #18
  4010bc:	f1bc 0f14 	cmp.w	ip, #20
  4010c0:	d961      	bls.n	401186 <_malloc_r+0x40e>
  4010c2:	f1bc 0f54 	cmp.w	ip, #84	; 0x54
  4010c6:	f200 808f 	bhi.w	4011e8 <_malloc_r+0x470>
  4010ca:	ea4f 3c15 	mov.w	ip, r5, lsr #12
  4010ce:	f10c 0c6e 	add.w	ip, ip, #110	; 0x6e
  4010d2:	ea4f 014c 	mov.w	r1, ip, lsl #1
  4010d6:	e697      	b.n	400e08 <_malloc_r+0x90>
  4010d8:	0a4b      	lsrs	r3, r1, #9
  4010da:	2b04      	cmp	r3, #4
  4010dc:	d958      	bls.n	401190 <_malloc_r+0x418>
  4010de:	2b14      	cmp	r3, #20
  4010e0:	f200 80ad 	bhi.w	40123e <_malloc_r+0x4c6>
  4010e4:	f103 025b 	add.w	r2, r3, #91	; 0x5b
  4010e8:	0050      	lsls	r0, r2, #1
  4010ea:	eb07 0080 	add.w	r0, r7, r0, lsl #2
  4010ee:	6883      	ldr	r3, [r0, #8]
  4010f0:	f8df 81b8 	ldr.w	r8, [pc, #440]	; 4012ac <_malloc_r+0x534>
  4010f4:	4283      	cmp	r3, r0
  4010f6:	f000 808a 	beq.w	40120e <_malloc_r+0x496>
  4010fa:	685a      	ldr	r2, [r3, #4]
  4010fc:	f022 0203 	bic.w	r2, r2, #3
  401100:	4291      	cmp	r1, r2
  401102:	d202      	bcs.n	40110a <_malloc_r+0x392>
  401104:	689b      	ldr	r3, [r3, #8]
  401106:	4298      	cmp	r0, r3
  401108:	d1f7      	bne.n	4010fa <_malloc_r+0x382>
  40110a:	68d9      	ldr	r1, [r3, #12]
  40110c:	687a      	ldr	r2, [r7, #4]
  40110e:	60e1      	str	r1, [r4, #12]
  401110:	60a3      	str	r3, [r4, #8]
  401112:	608c      	str	r4, [r1, #8]
  401114:	60dc      	str	r4, [r3, #12]
  401116:	e6b6      	b.n	400e86 <_malloc_r+0x10e>
  401118:	f045 0701 	orr.w	r7, r5, #1
  40111c:	f042 0101 	orr.w	r1, r2, #1
  401120:	4425      	add	r5, r4
  401122:	6067      	str	r7, [r4, #4]
  401124:	4630      	mov	r0, r6
  401126:	615d      	str	r5, [r3, #20]
  401128:	611d      	str	r5, [r3, #16]
  40112a:	f8c5 e00c 	str.w	lr, [r5, #12]
  40112e:	f8c5 e008 	str.w	lr, [r5, #8]
  401132:	6069      	str	r1, [r5, #4]
  401134:	50aa      	str	r2, [r5, r2]
  401136:	3408      	adds	r4, #8
  401138:	f000 f906 	bl	401348 <__malloc_unlock>
  40113c:	e648      	b.n	400dd0 <_malloc_r+0x58>
  40113e:	685a      	ldr	r2, [r3, #4]
  401140:	e6a1      	b.n	400e86 <_malloc_r+0x10e>
  401142:	f109 0901 	add.w	r9, r9, #1
  401146:	f019 0f03 	tst.w	r9, #3
  40114a:	f104 0408 	add.w	r4, r4, #8
  40114e:	f47f aead 	bne.w	400eac <_malloc_r+0x134>
  401152:	e02d      	b.n	4011b0 <_malloc_r+0x438>
  401154:	f104 0308 	add.w	r3, r4, #8
  401158:	6964      	ldr	r4, [r4, #20]
  40115a:	42a3      	cmp	r3, r4
  40115c:	bf08      	it	eq
  40115e:	f10c 0c02 	addeq.w	ip, ip, #2
  401162:	f43f ae67 	beq.w	400e34 <_malloc_r+0xbc>
  401166:	e623      	b.n	400db0 <_malloc_r+0x38>
  401168:	4419      	add	r1, r3
  40116a:	6848      	ldr	r0, [r1, #4]
  40116c:	461c      	mov	r4, r3
  40116e:	f854 2f08 	ldr.w	r2, [r4, #8]!
  401172:	68db      	ldr	r3, [r3, #12]
  401174:	f040 0501 	orr.w	r5, r0, #1
  401178:	604d      	str	r5, [r1, #4]
  40117a:	4630      	mov	r0, r6
  40117c:	60d3      	str	r3, [r2, #12]
  40117e:	609a      	str	r2, [r3, #8]
  401180:	f000 f8e2 	bl	401348 <__malloc_unlock>
  401184:	e624      	b.n	400dd0 <_malloc_r+0x58>
  401186:	f10c 0c5b 	add.w	ip, ip, #91	; 0x5b
  40118a:	ea4f 014c 	mov.w	r1, ip, lsl #1
  40118e:	e63b      	b.n	400e08 <_malloc_r+0x90>
  401190:	098a      	lsrs	r2, r1, #6
  401192:	3238      	adds	r2, #56	; 0x38
  401194:	0050      	lsls	r0, r2, #1
  401196:	e7a8      	b.n	4010ea <_malloc_r+0x372>
  401198:	42bc      	cmp	r4, r7
  40119a:	f43f af02 	beq.w	400fa2 <_malloc_r+0x22a>
  40119e:	68bc      	ldr	r4, [r7, #8]
  4011a0:	6862      	ldr	r2, [r4, #4]
  4011a2:	f022 0203 	bic.w	r2, r2, #3
  4011a6:	e761      	b.n	40106c <_malloc_r+0x2f4>
  4011a8:	f8d8 8000 	ldr.w	r8, [r8]
  4011ac:	4598      	cmp	r8, r3
  4011ae:	d17a      	bne.n	4012a6 <_malloc_r+0x52e>
  4011b0:	f01c 0f03 	tst.w	ip, #3
  4011b4:	f1a8 0308 	sub.w	r3, r8, #8
  4011b8:	f10c 3cff 	add.w	ip, ip, #4294967295
  4011bc:	d1f4      	bne.n	4011a8 <_malloc_r+0x430>
  4011be:	687b      	ldr	r3, [r7, #4]
  4011c0:	ea23 0300 	bic.w	r3, r3, r0
  4011c4:	607b      	str	r3, [r7, #4]
  4011c6:	0040      	lsls	r0, r0, #1
  4011c8:	4298      	cmp	r0, r3
  4011ca:	f63f aebe 	bhi.w	400f4a <_malloc_r+0x1d2>
  4011ce:	2800      	cmp	r0, #0
  4011d0:	f43f aebb 	beq.w	400f4a <_malloc_r+0x1d2>
  4011d4:	4203      	tst	r3, r0
  4011d6:	46cc      	mov	ip, r9
  4011d8:	f47f ae64 	bne.w	400ea4 <_malloc_r+0x12c>
  4011dc:	0040      	lsls	r0, r0, #1
  4011de:	4203      	tst	r3, r0
  4011e0:	f10c 0c04 	add.w	ip, ip, #4
  4011e4:	d0fa      	beq.n	4011dc <_malloc_r+0x464>
  4011e6:	e65d      	b.n	400ea4 <_malloc_r+0x12c>
  4011e8:	f5bc 7faa 	cmp.w	ip, #340	; 0x154
  4011ec:	d819      	bhi.n	401222 <_malloc_r+0x4aa>
  4011ee:	ea4f 3cd5 	mov.w	ip, r5, lsr #15
  4011f2:	f10c 0c77 	add.w	ip, ip, #119	; 0x77
  4011f6:	ea4f 014c 	mov.w	r1, ip, lsl #1
  4011fa:	e605      	b.n	400e08 <_malloc_r+0x90>
  4011fc:	f44f 5380 	mov.w	r3, #4096	; 0x1000
  401200:	e6ee      	b.n	400fe0 <_malloc_r+0x268>
  401202:	2301      	movs	r3, #1
  401204:	f8c8 3004 	str.w	r3, [r8, #4]
  401208:	4644      	mov	r4, r8
  40120a:	2200      	movs	r2, #0
  40120c:	e72e      	b.n	40106c <_malloc_r+0x2f4>
  40120e:	1092      	asrs	r2, r2, #2
  401210:	2001      	movs	r0, #1
  401212:	4090      	lsls	r0, r2
  401214:	f8d8 2004 	ldr.w	r2, [r8, #4]
  401218:	4619      	mov	r1, r3
  40121a:	4302      	orrs	r2, r0
  40121c:	f8c8 2004 	str.w	r2, [r8, #4]
  401220:	e775      	b.n	40110e <_malloc_r+0x396>
  401222:	f240 5354 	movw	r3, #1364	; 0x554
  401226:	459c      	cmp	ip, r3
  401228:	d81b      	bhi.n	401262 <_malloc_r+0x4ea>
  40122a:	ea4f 4c95 	mov.w	ip, r5, lsr #18
  40122e:	f10c 0c7c 	add.w	ip, ip, #124	; 0x7c
  401232:	ea4f 014c 	mov.w	r1, ip, lsl #1
  401236:	e5e7      	b.n	400e08 <_malloc_r+0x90>
  401238:	f10a 0a10 	add.w	sl, sl, #16
  40123c:	e6a3      	b.n	400f86 <_malloc_r+0x20e>
  40123e:	2b54      	cmp	r3, #84	; 0x54
  401240:	d81f      	bhi.n	401282 <_malloc_r+0x50a>
  401242:	0b0a      	lsrs	r2, r1, #12
  401244:	326e      	adds	r2, #110	; 0x6e
  401246:	0050      	lsls	r0, r2, #1
  401248:	e74f      	b.n	4010ea <_malloc_r+0x372>
  40124a:	f3cb 010b 	ubfx	r1, fp, #0, #12
  40124e:	2900      	cmp	r1, #0
  401250:	f47f aeb1 	bne.w	400fb6 <_malloc_r+0x23e>
  401254:	eb0a 0109 	add.w	r1, sl, r9
  401258:	68ba      	ldr	r2, [r7, #8]
  40125a:	f041 0101 	orr.w	r1, r1, #1
  40125e:	6051      	str	r1, [r2, #4]
  401260:	e6f6      	b.n	401050 <_malloc_r+0x2d8>
  401262:	21fc      	movs	r1, #252	; 0xfc
  401264:	f04f 0c7e 	mov.w	ip, #126	; 0x7e
  401268:	e5ce      	b.n	400e08 <_malloc_r+0x90>
  40126a:	2201      	movs	r2, #1
  40126c:	f04f 0a00 	mov.w	sl, #0
  401270:	e6cb      	b.n	40100a <_malloc_r+0x292>
  401272:	f104 0108 	add.w	r1, r4, #8
  401276:	4630      	mov	r0, r6
  401278:	f000 f920 	bl	4014bc <_free_r>
  40127c:	f8da 3000 	ldr.w	r3, [sl]
  401280:	e6e6      	b.n	401050 <_malloc_r+0x2d8>
  401282:	f5b3 7faa 	cmp.w	r3, #340	; 0x154
  401286:	d803      	bhi.n	401290 <_malloc_r+0x518>
  401288:	0bca      	lsrs	r2, r1, #15
  40128a:	3277      	adds	r2, #119	; 0x77
  40128c:	0050      	lsls	r0, r2, #1
  40128e:	e72c      	b.n	4010ea <_malloc_r+0x372>
  401290:	f240 5254 	movw	r2, #1364	; 0x554
  401294:	4293      	cmp	r3, r2
  401296:	d803      	bhi.n	4012a0 <_malloc_r+0x528>
  401298:	0c8a      	lsrs	r2, r1, #18
  40129a:	327c      	adds	r2, #124	; 0x7c
  40129c:	0050      	lsls	r0, r2, #1
  40129e:	e724      	b.n	4010ea <_malloc_r+0x372>
  4012a0:	20fc      	movs	r0, #252	; 0xfc
  4012a2:	227e      	movs	r2, #126	; 0x7e
  4012a4:	e721      	b.n	4010ea <_malloc_r+0x372>
  4012a6:	687b      	ldr	r3, [r7, #4]
  4012a8:	e78d      	b.n	4011c6 <_malloc_r+0x44e>
  4012aa:	bf00      	nop
  4012ac:	20000434 	andcs	r0, r0, r4, lsr r4

004012b0 <memset>:
  4012b0:	b4f0      	push	{r4, r5, r6, r7}
  4012b2:	0784      	lsls	r4, r0, #30
  4012b4:	d043      	beq.n	40133e <memset+0x8e>
  4012b6:	1e54      	subs	r4, r2, #1
  4012b8:	2a00      	cmp	r2, #0
  4012ba:	d03e      	beq.n	40133a <memset+0x8a>
  4012bc:	b2cd      	uxtb	r5, r1
  4012be:	4603      	mov	r3, r0
  4012c0:	e003      	b.n	4012ca <memset+0x1a>
  4012c2:	1e62      	subs	r2, r4, #1
  4012c4:	2c00      	cmp	r4, #0
  4012c6:	d038      	beq.n	40133a <memset+0x8a>
  4012c8:	4614      	mov	r4, r2
  4012ca:	f803 5b01 	strb.w	r5, [r3], #1
  4012ce:	079a      	lsls	r2, r3, #30
  4012d0:	d1f7      	bne.n	4012c2 <memset+0x12>
  4012d2:	2c03      	cmp	r4, #3
  4012d4:	d92a      	bls.n	40132c <memset+0x7c>
  4012d6:	b2cd      	uxtb	r5, r1
  4012d8:	ea45 2505 	orr.w	r5, r5, r5, lsl #8
  4012dc:	2c0f      	cmp	r4, #15
  4012de:	ea45 4505 	orr.w	r5, r5, r5, lsl #16
  4012e2:	d915      	bls.n	401310 <memset+0x60>
  4012e4:	f1a4 0710 	sub.w	r7, r4, #16
  4012e8:	093f      	lsrs	r7, r7, #4
  4012ea:	f103 0610 	add.w	r6, r3, #16
  4012ee:	eb06 1607 	add.w	r6, r6, r7, lsl #4
  4012f2:	461a      	mov	r2, r3
  4012f4:	6015      	str	r5, [r2, #0]
  4012f6:	6055      	str	r5, [r2, #4]
  4012f8:	6095      	str	r5, [r2, #8]
  4012fa:	60d5      	str	r5, [r2, #12]
  4012fc:	3210      	adds	r2, #16
  4012fe:	42b2      	cmp	r2, r6
  401300:	d1f8      	bne.n	4012f4 <memset+0x44>
  401302:	f004 040f 	and.w	r4, r4, #15
  401306:	3701      	adds	r7, #1
  401308:	2c03      	cmp	r4, #3
  40130a:	eb03 1307 	add.w	r3, r3, r7, lsl #4
  40130e:	d90d      	bls.n	40132c <memset+0x7c>
  401310:	461e      	mov	r6, r3
  401312:	4622      	mov	r2, r4
  401314:	3a04      	subs	r2, #4
  401316:	2a03      	cmp	r2, #3
  401318:	f846 5b04 	str.w	r5, [r6], #4
  40131c:	d8fa      	bhi.n	401314 <memset+0x64>
  40131e:	1f22      	subs	r2, r4, #4
  401320:	f022 0203 	bic.w	r2, r2, #3
  401324:	3204      	adds	r2, #4
  401326:	4413      	add	r3, r2
  401328:	f004 0403 	and.w	r4, r4, #3
  40132c:	b12c      	cbz	r4, 40133a <memset+0x8a>
  40132e:	b2c9      	uxtb	r1, r1
  401330:	441c      	add	r4, r3
  401332:	f803 1b01 	strb.w	r1, [r3], #1
  401336:	42a3      	cmp	r3, r4
  401338:	d1fb      	bne.n	401332 <memset+0x82>
  40133a:	bcf0      	pop	{r4, r5, r6, r7}
  40133c:	4770      	bx	lr
  40133e:	4614      	mov	r4, r2
  401340:	4603      	mov	r3, r0
  401342:	e7c6      	b.n	4012d2 <memset+0x22>

00401344 <__malloc_lock>:
  401344:	4770      	bx	lr
  401346:	bf00      	nop

00401348 <__malloc_unlock>:
  401348:	4770      	bx	lr
  40134a:	bf00      	nop

0040134c <_sbrk_r>:
  40134c:	b538      	push	{r3, r4, r5, lr}
  40134e:	4c07      	ldr	r4, [pc, #28]	; (40136c <_sbrk_r+0x20>)
  401350:	2300      	movs	r3, #0
  401352:	4605      	mov	r5, r0
  401354:	4608      	mov	r0, r1
  401356:	6023      	str	r3, [r4, #0]
  401358:	f7fe fee2 	bl	400120 <_sbrk>
  40135c:	1c43      	adds	r3, r0, #1
  40135e:	d000      	beq.n	401362 <_sbrk_r+0x16>
  401360:	bd38      	pop	{r3, r4, r5, pc}
  401362:	6823      	ldr	r3, [r4, #0]
  401364:	2b00      	cmp	r3, #0
  401366:	d0fb      	beq.n	401360 <_sbrk_r+0x14>
  401368:	602b      	str	r3, [r5, #0]
  40136a:	bd38      	pop	{r3, r4, r5, pc}
  40136c:	2000098c 	andcs	r0, r0, ip, lsl #19

00401370 <strlen>:
  401370:	f020 0103 	bic.w	r1, r0, #3
  401374:	f010 0003 	ands.w	r0, r0, #3
  401378:	f1c0 0000 	rsb	r0, r0, #0
  40137c:	f851 3b04 	ldr.w	r3, [r1], #4
  401380:	f100 0c04 	add.w	ip, r0, #4
  401384:	ea4f 0ccc 	mov.w	ip, ip, lsl #3
  401388:	f06f 0200 	mvn.w	r2, #0
  40138c:	bf1c      	itt	ne
  40138e:	fa22 f20c 	lsrne.w	r2, r2, ip
  401392:	4313      	orrne	r3, r2
  401394:	f04f 0c01 	mov.w	ip, #1
  401398:	ea4c 2c0c 	orr.w	ip, ip, ip, lsl #8
  40139c:	ea4c 4c0c 	orr.w	ip, ip, ip, lsl #16
  4013a0:	eba3 020c 	sub.w	r2, r3, ip
  4013a4:	ea22 0203 	bic.w	r2, r2, r3
  4013a8:	ea12 12cc 	ands.w	r2, r2, ip, lsl #7
  4013ac:	bf04      	itt	eq
  4013ae:	f851 3b04 	ldreq.w	r3, [r1], #4
  4013b2:	3004      	addeq	r0, #4
  4013b4:	d0f4      	beq.n	4013a0 <strlen+0x30>
  4013b6:	f013 0fff 	tst.w	r3, #255	; 0xff
  4013ba:	bf1f      	itttt	ne
  4013bc:	3001      	addne	r0, #1
  4013be:	f413 4f7f 	tstne.w	r3, #65280	; 0xff00
  4013c2:	3001      	addne	r0, #1
  4013c4:	f413 0f7f 	tstne.w	r3, #16711680	; 0xff0000
  4013c8:	bf18      	it	ne
  4013ca:	3001      	addne	r0, #1
  4013cc:	4770      	bx	lr
  4013ce:	bf00      	nop

004013d0 <register_fini>:
  4013d0:	4b02      	ldr	r3, [pc, #8]	; (4013dc <register_fini+0xc>)
  4013d2:	b113      	cbz	r3, 4013da <register_fini+0xa>
  4013d4:	4802      	ldr	r0, [pc, #8]	; (4013e0 <register_fini+0x10>)
  4013d6:	f000 b805 	b.w	4013e4 <atexit>
  4013da:	4770      	bx	lr
  4013dc:	00000000 	andeq	r0, r0, r0
  4013e0:	004013f1 	strdeq	r1, [r0], #-49	; 0xffffffcf

004013e4 <atexit>:
  4013e4:	4601      	mov	r1, r0
  4013e6:	2000      	movs	r0, #0
  4013e8:	4602      	mov	r2, r0
  4013ea:	4603      	mov	r3, r0
  4013ec:	f000 b932 	b.w	401654 <__register_exitproc>

004013f0 <__libc_fini_array>:
  4013f0:	b538      	push	{r3, r4, r5, lr}
  4013f2:	4d09      	ldr	r5, [pc, #36]	; (401418 <__libc_fini_array+0x28>)
  4013f4:	4c09      	ldr	r4, [pc, #36]	; (40141c <__libc_fini_array+0x2c>)
  4013f6:	1b64      	subs	r4, r4, r5
  4013f8:	10a4      	asrs	r4, r4, #2
  4013fa:	bf18      	it	ne
  4013fc:	eb05 0584 	addne.w	r5, r5, r4, lsl #2
  401400:	d005      	beq.n	40140e <__libc_fini_array+0x1e>
  401402:	3c01      	subs	r4, #1
  401404:	f855 3d04 	ldr.w	r3, [r5, #-4]!
  401408:	4798      	blx	r3
  40140a:	2c00      	cmp	r4, #0
  40140c:	d1f9      	bne.n	401402 <__libc_fini_array+0x12>
  40140e:	e8bd 4038 	ldmia.w	sp!, {r3, r4, r5, lr}
  401412:	f000 bb79 	b.w	401b08 <_fini>
  401416:	bf00      	nop
  401418:	00401b14 	subeq	r1, r0, r4, lsl fp
  40141c:	00401b18 	subeq	r1, r0, r8, lsl fp

00401420 <_malloc_trim_r>:
  401420:	b5f8      	push	{r3, r4, r5, r6, r7, lr}
  401422:	4d23      	ldr	r5, [pc, #140]	; (4014b0 <_malloc_trim_r+0x90>)
  401424:	460f      	mov	r7, r1
  401426:	4604      	mov	r4, r0
  401428:	f7ff ff8c 	bl	401344 <__malloc_lock>
  40142c:	68ab      	ldr	r3, [r5, #8]
  40142e:	685e      	ldr	r6, [r3, #4]
  401430:	f026 0603 	bic.w	r6, r6, #3
  401434:	1bf1      	subs	r1, r6, r7
  401436:	f601 71ef 	addw	r1, r1, #4079	; 0xfef
  40143a:	f421 617f 	bic.w	r1, r1, #4080	; 0xff0
  40143e:	f021 010f 	bic.w	r1, r1, #15
  401442:	f5a1 5780 	sub.w	r7, r1, #4096	; 0x1000
  401446:	f5b7 5f80 	cmp.w	r7, #4096	; 0x1000
  40144a:	db07      	blt.n	40145c <_malloc_trim_r+0x3c>
  40144c:	4620      	mov	r0, r4
  40144e:	2100      	movs	r1, #0
  401450:	f7ff ff7c 	bl	40134c <_sbrk_r>
  401454:	68ab      	ldr	r3, [r5, #8]
  401456:	4433      	add	r3, r6
  401458:	4298      	cmp	r0, r3
  40145a:	d004      	beq.n	401466 <_malloc_trim_r+0x46>
  40145c:	4620      	mov	r0, r4
  40145e:	f7ff ff73 	bl	401348 <__malloc_unlock>
  401462:	2000      	movs	r0, #0
  401464:	bdf8      	pop	{r3, r4, r5, r6, r7, pc}
  401466:	4620      	mov	r0, r4
  401468:	4279      	negs	r1, r7
  40146a:	f7ff ff6f 	bl	40134c <_sbrk_r>
  40146e:	3001      	adds	r0, #1
  401470:	d00d      	beq.n	40148e <_malloc_trim_r+0x6e>
  401472:	4b10      	ldr	r3, [pc, #64]	; (4014b4 <_malloc_trim_r+0x94>)
  401474:	68aa      	ldr	r2, [r5, #8]
  401476:	6819      	ldr	r1, [r3, #0]
  401478:	1bf6      	subs	r6, r6, r7
  40147a:	f046 0601 	orr.w	r6, r6, #1
  40147e:	4620      	mov	r0, r4
  401480:	1bc9      	subs	r1, r1, r7
  401482:	6056      	str	r6, [r2, #4]
  401484:	6019      	str	r1, [r3, #0]
  401486:	f7ff ff5f 	bl	401348 <__malloc_unlock>
  40148a:	2001      	movs	r0, #1
  40148c:	bdf8      	pop	{r3, r4, r5, r6, r7, pc}
  40148e:	4620      	mov	r0, r4
  401490:	2100      	movs	r1, #0
  401492:	f7ff ff5b 	bl	40134c <_sbrk_r>
  401496:	68ab      	ldr	r3, [r5, #8]
  401498:	1ac2      	subs	r2, r0, r3
  40149a:	2a0f      	cmp	r2, #15
  40149c:	ddde      	ble.n	40145c <_malloc_trim_r+0x3c>
  40149e:	4d06      	ldr	r5, [pc, #24]	; (4014b8 <_malloc_trim_r+0x98>)
  4014a0:	4904      	ldr	r1, [pc, #16]	; (4014b4 <_malloc_trim_r+0x94>)
  4014a2:	682d      	ldr	r5, [r5, #0]
  4014a4:	f042 0201 	orr.w	r2, r2, #1
  4014a8:	1b40      	subs	r0, r0, r5
  4014aa:	605a      	str	r2, [r3, #4]
  4014ac:	6008      	str	r0, [r1, #0]
  4014ae:	e7d5      	b.n	40145c <_malloc_trim_r+0x3c>
  4014b0:	20000434 	andcs	r0, r0, r4, lsr r4
  4014b4:	20000964 	andcs	r0, r0, r4, ror #18
  4014b8:	20000840 	andcs	r0, r0, r0, asr #16

004014bc <_free_r>:
  4014bc:	e92d 41f0 	stmdb	sp!, {r4, r5, r6, r7, r8, lr}
  4014c0:	460d      	mov	r5, r1
  4014c2:	4606      	mov	r6, r0
  4014c4:	2900      	cmp	r1, #0
  4014c6:	d055      	beq.n	401574 <_free_r+0xb8>
  4014c8:	f7ff ff3c 	bl	401344 <__malloc_lock>
  4014cc:	f855 1c04 	ldr.w	r1, [r5, #-4]
  4014d0:	f8df c170 	ldr.w	ip, [pc, #368]	; 401644 <_free_r+0x188>
  4014d4:	f1a5 0408 	sub.w	r4, r5, #8
  4014d8:	f021 0301 	bic.w	r3, r1, #1
  4014dc:	18e2      	adds	r2, r4, r3
  4014de:	f8dc 0008 	ldr.w	r0, [ip, #8]
  4014e2:	6857      	ldr	r7, [r2, #4]
  4014e4:	4290      	cmp	r0, r2
  4014e6:	f027 0703 	bic.w	r7, r7, #3
  4014ea:	d068      	beq.n	4015be <_free_r+0x102>
  4014ec:	f011 0101 	ands.w	r1, r1, #1
  4014f0:	6057      	str	r7, [r2, #4]
  4014f2:	d032      	beq.n	40155a <_free_r+0x9e>
  4014f4:	2100      	movs	r1, #0
  4014f6:	19d0      	adds	r0, r2, r7
  4014f8:	6840      	ldr	r0, [r0, #4]
  4014fa:	07c0      	lsls	r0, r0, #31
  4014fc:	d406      	bmi.n	40150c <_free_r+0x50>
  4014fe:	443b      	add	r3, r7
  401500:	6890      	ldr	r0, [r2, #8]
  401502:	2900      	cmp	r1, #0
  401504:	d04d      	beq.n	4015a2 <_free_r+0xe6>
  401506:	68d2      	ldr	r2, [r2, #12]
  401508:	60c2      	str	r2, [r0, #12]
  40150a:	6090      	str	r0, [r2, #8]
  40150c:	f043 0201 	orr.w	r2, r3, #1
  401510:	6062      	str	r2, [r4, #4]
  401512:	50e3      	str	r3, [r4, r3]
  401514:	b9e1      	cbnz	r1, 401550 <_free_r+0x94>
  401516:	f5b3 7f00 	cmp.w	r3, #512	; 0x200
  40151a:	d32d      	bcc.n	401578 <_free_r+0xbc>
  40151c:	0a5a      	lsrs	r2, r3, #9
  40151e:	2a04      	cmp	r2, #4
  401520:	d869      	bhi.n	4015f6 <_free_r+0x13a>
  401522:	0998      	lsrs	r0, r3, #6
  401524:	3038      	adds	r0, #56	; 0x38
  401526:	0041      	lsls	r1, r0, #1
  401528:	eb0c 0c81 	add.w	ip, ip, r1, lsl #2
  40152c:	f8dc 2008 	ldr.w	r2, [ip, #8]
  401530:	4944      	ldr	r1, [pc, #272]	; (401644 <_free_r+0x188>)
  401532:	4562      	cmp	r2, ip
  401534:	d065      	beq.n	401602 <_free_r+0x146>
  401536:	6851      	ldr	r1, [r2, #4]
  401538:	f021 0103 	bic.w	r1, r1, #3
  40153c:	428b      	cmp	r3, r1
  40153e:	d202      	bcs.n	401546 <_free_r+0x8a>
  401540:	6892      	ldr	r2, [r2, #8]
  401542:	4594      	cmp	ip, r2
  401544:	d1f7      	bne.n	401536 <_free_r+0x7a>
  401546:	68d3      	ldr	r3, [r2, #12]
  401548:	60e3      	str	r3, [r4, #12]
  40154a:	60a2      	str	r2, [r4, #8]
  40154c:	609c      	str	r4, [r3, #8]
  40154e:	60d4      	str	r4, [r2, #12]
  401550:	4630      	mov	r0, r6
  401552:	e8bd 41f0 	ldmia.w	sp!, {r4, r5, r6, r7, r8, lr}
  401556:	f7ff bef7 	b.w	401348 <__malloc_unlock>
  40155a:	f855 5c08 	ldr.w	r5, [r5, #-8]
  40155e:	f10c 0808 	add.w	r8, ip, #8
  401562:	1b64      	subs	r4, r4, r5
  401564:	68a0      	ldr	r0, [r4, #8]
  401566:	442b      	add	r3, r5
  401568:	4540      	cmp	r0, r8
  40156a:	d042      	beq.n	4015f2 <_free_r+0x136>
  40156c:	68e5      	ldr	r5, [r4, #12]
  40156e:	60c5      	str	r5, [r0, #12]
  401570:	60a8      	str	r0, [r5, #8]
  401572:	e7c0      	b.n	4014f6 <_free_r+0x3a>
  401574:	e8bd 81f0 	ldmia.w	sp!, {r4, r5, r6, r7, r8, pc}
  401578:	08db      	lsrs	r3, r3, #3
  40157a:	109a      	asrs	r2, r3, #2
  40157c:	2001      	movs	r0, #1
  40157e:	4090      	lsls	r0, r2
  401580:	f8dc 1004 	ldr.w	r1, [ip, #4]
  401584:	eb0c 03c3 	add.w	r3, ip, r3, lsl #3
  401588:	689a      	ldr	r2, [r3, #8]
  40158a:	4301      	orrs	r1, r0
  40158c:	60a2      	str	r2, [r4, #8]
  40158e:	60e3      	str	r3, [r4, #12]
  401590:	f8cc 1004 	str.w	r1, [ip, #4]
  401594:	4630      	mov	r0, r6
  401596:	609c      	str	r4, [r3, #8]
  401598:	60d4      	str	r4, [r2, #12]
  40159a:	e8bd 41f0 	ldmia.w	sp!, {r4, r5, r6, r7, r8, lr}
  40159e:	f7ff bed3 	b.w	401348 <__malloc_unlock>
  4015a2:	4d29      	ldr	r5, [pc, #164]	; (401648 <_free_r+0x18c>)
  4015a4:	42a8      	cmp	r0, r5
  4015a6:	d1ae      	bne.n	401506 <_free_r+0x4a>
  4015a8:	f043 0201 	orr.w	r2, r3, #1
  4015ac:	f8cc 4014 	str.w	r4, [ip, #20]
  4015b0:	f8cc 4010 	str.w	r4, [ip, #16]
  4015b4:	60e0      	str	r0, [r4, #12]
  4015b6:	60a0      	str	r0, [r4, #8]
  4015b8:	6062      	str	r2, [r4, #4]
  4015ba:	50e3      	str	r3, [r4, r3]
  4015bc:	e7c8      	b.n	401550 <_free_r+0x94>
  4015be:	441f      	add	r7, r3
  4015c0:	07cb      	lsls	r3, r1, #31
  4015c2:	d407      	bmi.n	4015d4 <_free_r+0x118>
  4015c4:	f855 1c08 	ldr.w	r1, [r5, #-8]
  4015c8:	1a64      	subs	r4, r4, r1
  4015ca:	68e3      	ldr	r3, [r4, #12]
  4015cc:	68a2      	ldr	r2, [r4, #8]
  4015ce:	440f      	add	r7, r1
  4015d0:	60d3      	str	r3, [r2, #12]
  4015d2:	609a      	str	r2, [r3, #8]
  4015d4:	4b1d      	ldr	r3, [pc, #116]	; (40164c <_free_r+0x190>)
  4015d6:	f047 0201 	orr.w	r2, r7, #1
  4015da:	681b      	ldr	r3, [r3, #0]
  4015dc:	6062      	str	r2, [r4, #4]
  4015de:	429f      	cmp	r7, r3
  4015e0:	f8cc 4008 	str.w	r4, [ip, #8]
  4015e4:	d3b4      	bcc.n	401550 <_free_r+0x94>
  4015e6:	4b1a      	ldr	r3, [pc, #104]	; (401650 <_free_r+0x194>)
  4015e8:	4630      	mov	r0, r6
  4015ea:	6819      	ldr	r1, [r3, #0]
  4015ec:	f7ff ff18 	bl	401420 <_malloc_trim_r>
  4015f0:	e7ae      	b.n	401550 <_free_r+0x94>
  4015f2:	2101      	movs	r1, #1
  4015f4:	e77f      	b.n	4014f6 <_free_r+0x3a>
  4015f6:	2a14      	cmp	r2, #20
  4015f8:	d80b      	bhi.n	401612 <_free_r+0x156>
  4015fa:	f102 005b 	add.w	r0, r2, #91	; 0x5b
  4015fe:	0041      	lsls	r1, r0, #1
  401600:	e792      	b.n	401528 <_free_r+0x6c>
  401602:	1080      	asrs	r0, r0, #2
  401604:	2501      	movs	r5, #1
  401606:	4085      	lsls	r5, r0
  401608:	6848      	ldr	r0, [r1, #4]
  40160a:	4613      	mov	r3, r2
  40160c:	4328      	orrs	r0, r5
  40160e:	6048      	str	r0, [r1, #4]
  401610:	e79a      	b.n	401548 <_free_r+0x8c>
  401612:	2a54      	cmp	r2, #84	; 0x54
  401614:	d803      	bhi.n	40161e <_free_r+0x162>
  401616:	0b18      	lsrs	r0, r3, #12
  401618:	306e      	adds	r0, #110	; 0x6e
  40161a:	0041      	lsls	r1, r0, #1
  40161c:	e784      	b.n	401528 <_free_r+0x6c>
  40161e:	f5b2 7faa 	cmp.w	r2, #340	; 0x154
  401622:	d803      	bhi.n	40162c <_free_r+0x170>
  401624:	0bd8      	lsrs	r0, r3, #15
  401626:	3077      	adds	r0, #119	; 0x77
  401628:	0041      	lsls	r1, r0, #1
  40162a:	e77d      	b.n	401528 <_free_r+0x6c>
  40162c:	f240 5154 	movw	r1, #1364	; 0x554
  401630:	428a      	cmp	r2, r1
  401632:	d803      	bhi.n	40163c <_free_r+0x180>
  401634:	0c98      	lsrs	r0, r3, #18
  401636:	307c      	adds	r0, #124	; 0x7c
  401638:	0041      	lsls	r1, r0, #1
  40163a:	e775      	b.n	401528 <_free_r+0x6c>
  40163c:	21fc      	movs	r1, #252	; 0xfc
  40163e:	207e      	movs	r0, #126	; 0x7e
  401640:	e772      	b.n	401528 <_free_r+0x6c>
  401642:	bf00      	nop
  401644:	20000434 	andcs	r0, r0, r4, lsr r4
  401648:	2000043c 	andcs	r0, r0, ip, lsr r4
  40164c:	2000083c 	andcs	r0, r0, ip, lsr r8
  401650:	20000960 	andcs	r0, r0, r0, ror #18

00401654 <__register_exitproc>:
  401654:	b5f0      	push	{r4, r5, r6, r7, lr}
  401656:	4c27      	ldr	r4, [pc, #156]	; (4016f4 <__register_exitproc+0xa0>)
  401658:	b085      	sub	sp, #20
  40165a:	6826      	ldr	r6, [r4, #0]
  40165c:	4607      	mov	r7, r0
  40165e:	f8d6 4148 	ldr.w	r4, [r6, #328]	; 0x148
  401662:	2c00      	cmp	r4, #0
  401664:	d040      	beq.n	4016e8 <__register_exitproc+0x94>
  401666:	6865      	ldr	r5, [r4, #4]
  401668:	2d1f      	cmp	r5, #31
  40166a:	dd1e      	ble.n	4016aa <__register_exitproc+0x56>
  40166c:	4822      	ldr	r0, [pc, #136]	; (4016f8 <__register_exitproc+0xa4>)
  40166e:	b918      	cbnz	r0, 401678 <__register_exitproc+0x24>
  401670:	f04f 30ff 	mov.w	r0, #4294967295
  401674:	b005      	add	sp, #20
  401676:	bdf0      	pop	{r4, r5, r6, r7, pc}
  401678:	f44f 70c8 	mov.w	r0, #400	; 0x190
  40167c:	9103      	str	r1, [sp, #12]
  40167e:	9202      	str	r2, [sp, #8]
  401680:	9301      	str	r3, [sp, #4]
  401682:	f7ff fb71 	bl	400d68 <malloc>
  401686:	9903      	ldr	r1, [sp, #12]
  401688:	4604      	mov	r4, r0
  40168a:	9a02      	ldr	r2, [sp, #8]
  40168c:	9b01      	ldr	r3, [sp, #4]
  40168e:	2800      	cmp	r0, #0
  401690:	d0ee      	beq.n	401670 <__register_exitproc+0x1c>
  401692:	f8d6 5148 	ldr.w	r5, [r6, #328]	; 0x148
  401696:	2000      	movs	r0, #0
  401698:	6025      	str	r5, [r4, #0]
  40169a:	6060      	str	r0, [r4, #4]
  40169c:	4605      	mov	r5, r0
  40169e:	f8c6 4148 	str.w	r4, [r6, #328]	; 0x148
  4016a2:	f8c4 0188 	str.w	r0, [r4, #392]	; 0x188
  4016a6:	f8c4 018c 	str.w	r0, [r4, #396]	; 0x18c
  4016aa:	b93f      	cbnz	r7, 4016bc <__register_exitproc+0x68>
  4016ac:	1c6b      	adds	r3, r5, #1
  4016ae:	2000      	movs	r0, #0
  4016b0:	3502      	adds	r5, #2
  4016b2:	6063      	str	r3, [r4, #4]
  4016b4:	f844 1025 	str.w	r1, [r4, r5, lsl #2]
  4016b8:	b005      	add	sp, #20
  4016ba:	bdf0      	pop	{r4, r5, r6, r7, pc}
  4016bc:	2601      	movs	r6, #1
  4016be:	40ae      	lsls	r6, r5
  4016c0:	eb04 0085 	add.w	r0, r4, r5, lsl #2
  4016c4:	f8c0 2088 	str.w	r2, [r0, #136]	; 0x88
  4016c8:	f8d4 2188 	ldr.w	r2, [r4, #392]	; 0x188
  4016cc:	2f02      	cmp	r7, #2
  4016ce:	ea42 0206 	orr.w	r2, r2, r6
  4016d2:	f8c4 2188 	str.w	r2, [r4, #392]	; 0x188
  4016d6:	f8c0 3108 	str.w	r3, [r0, #264]	; 0x108
  4016da:	d1e7      	bne.n	4016ac <__register_exitproc+0x58>
  4016dc:	f8d4 318c 	ldr.w	r3, [r4, #396]	; 0x18c
  4016e0:	431e      	orrs	r6, r3
  4016e2:	f8c4 618c 	str.w	r6, [r4, #396]	; 0x18c
  4016e6:	e7e1      	b.n	4016ac <__register_exitproc+0x58>
  4016e8:	f506 74a6 	add.w	r4, r6, #332	; 0x14c
  4016ec:	f8c6 4148 	str.w	r4, [r6, #328]	; 0x148
  4016f0:	e7b9      	b.n	401666 <__register_exitproc+0x12>
  4016f2:	bf00      	nop
  4016f4:	00401aec 	subeq	r1, r0, ip, ror #21
  4016f8:	00400d69 	subeq	r0, r0, r9, ror #26
  4016fc:	666e6f43 	strbtvs	r6, [lr], -r3, asr #30
  401700:	72756769 	rsbsvc	r6, r5, #27525120	; 0x1a40000
  401704:	6f697461 	svcvs	0x00697461
  401708:	6f63206e 	svcvs	0x0063206e
  40170c:	656c706d 	strbvs	r7, [ip, #-109]!	; 0x6d
  401710:	00006574 	andeq	r6, r0, r4, ror r5
  401714:	00000000 	andeq	r0, r0, r0

00401718 <_ZTV9UARTClass>:
	...
  401720:	004003ed 	subeq	r0, r0, sp, ror #7
  401724:	0040032d 	subeq	r0, r0, sp, lsr #6
  401728:	004003a7 	subeq	r0, r0, r7, lsr #7
  40172c:	004003c7 	subeq	r0, r0, r7, asr #7
  401730:	004003b5 	strheq	r0, [r0], #-53	; 0xffffffcb
  401734:	004003e3 	subeq	r0, r0, r3, ror #7
  401738:	004003a3 	subeq	r0, r0, r3, lsr #7
  40173c:	00000000 	andeq	r0, r0, r0

00401740 <g_APinDescription>:
  401740:	400e0e00 	andmi	r0, lr, r0, lsl #28
  401744:	00000020 	andeq	r0, r0, r0, lsr #32
  401748:	0000000b 	andeq	r0, r0, fp
  40174c:	00000001 	andeq	r0, r0, r1
  401750:	00000000 	andeq	r0, r0, r0
  401754:	00000004 	andeq	r0, r0, r4
  401758:	ffffffff 			; <UNDEFINED> instruction: 0xffffffff
  40175c:	400e0e00 	andmi	r0, lr, r0, lsl #28
  401760:	00000040 	andeq	r0, r0, r0, asr #32
  401764:	0000000b 	andeq	r0, r0, fp
  401768:	00000001 	andeq	r0, r0, r1
  40176c:	00000000 	andeq	r0, r0, r0
  401770:	00000004 	andeq	r0, r0, r4
  401774:	ffffffff 			; <UNDEFINED> instruction: 0xffffffff
  401778:	400e0e00 	andmi	r0, lr, r0, lsl #28
  40177c:	00000004 	andeq	r0, r0, r4
  401780:	0000000c 	andeq	r0, r0, ip
  401784:	00000001 	andeq	r0, r0, r1
  401788:	00000000 	andeq	r0, r0, r0
  40178c:	00000004 	andeq	r0, r0, r4
  401790:	ffffffff 			; <UNDEFINED> instruction: 0xffffffff
  401794:	400e0e00 	andmi	r0, lr, r0, lsl #28
  401798:	00000008 	andeq	r0, r0, r8
  40179c:	0000000c 	andeq	r0, r0, ip
  4017a0:	00000001 	andeq	r0, r0, r1
  4017a4:	00000000 	andeq	r0, r0, r0
  4017a8:	00000004 	andeq	r0, r0, r4
  4017ac:	ffffffff 			; <UNDEFINED> instruction: 0xffffffff
  4017b0:	400e0e00 	andmi	r0, lr, r0, lsl #28
  4017b4:	00020000 	andeq	r0, r2, r0
  4017b8:	0000000b 	andeq	r0, r0, fp
  4017bc:	00000005 	andeq	r0, r0, r5
  4017c0:	00000000 	andeq	r0, r0, r0
  4017c4:	00000002 	andeq	r0, r0, r2
  4017c8:	ffff0000 			; <UNDEFINED> instruction: 0xffff0000
  4017cc:	400e0e00 	andmi	r0, lr, r0, lsl #28
  4017d0:	00080000 	andeq	r0, r8, r0
  4017d4:	0000000b 	andeq	r0, r0, fp
  4017d8:	00000005 	andeq	r0, r0, r5
  4017dc:	00000000 	andeq	r0, r0, r0
  4017e0:	00000002 	andeq	r0, r0, r2
  4017e4:	ffff0201 			; <UNDEFINED> instruction: 0xffff0201
  4017e8:	400e1000 	andmi	r1, lr, r0
  4017ec:	00000001 	andeq	r0, r0, r1
  4017f0:	0000000c 	andeq	r0, r0, ip
  4017f4:	00000005 	andeq	r0, r0, r5
  4017f8:	00000000 	andeq	r0, r0, r0
  4017fc:	00000002 	andeq	r0, r0, r2
  401800:	ffff0402 			; <UNDEFINED> instruction: 0xffff0402
  401804:	400e1000 	andmi	r1, lr, r0
  401808:	00000002 	andeq	r0, r0, r2
  40180c:	0000000c 	andeq	r0, r0, ip
  401810:	00000005 	andeq	r0, r0, r5
  401814:	00000000 	andeq	r0, r0, r0
  401818:	00000002 	andeq	r0, r0, r2
  40181c:	ffff0503 			; <UNDEFINED> instruction: 0xffff0503
  401820:	400e0e00 	andmi	r0, lr, r0, lsl #28
  401824:	00000100 	andeq	r0, r0, r0, lsl #2
  401828:	0000000b 	andeq	r0, r0, fp
  40182c:	00000006 	andeq	r0, r0, r6
  401830:	00000000 	andeq	r0, r0, r0
  401834:	00000004 	andeq	r0, r0, r4
  401838:	ffffffff 			; <UNDEFINED> instruction: 0xffffffff
  40183c:	400e0e00 	andmi	r0, lr, r0, lsl #28
  401840:	00000080 	andeq	r0, r0, r0, lsl #1
  401844:	0000000b 	andeq	r0, r0, fp
  401848:	00000006 	andeq	r0, r0, r6
  40184c:	00000000 	andeq	r0, r0, r0
  401850:	00000004 	andeq	r0, r0, r4
  401854:	ffffffff 			; <UNDEFINED> instruction: 0xffffffff
  401858:	400e0e00 	andmi	r0, lr, r0, lsl #28
  40185c:	00000004 	andeq	r0, r0, r4
  401860:	0000000b 	andeq	r0, r0, fp
  401864:	00000006 	andeq	r0, r0, r6
  401868:	00000000 	andeq	r0, r0, r0
  40186c:	00000004 	andeq	r0, r0, r4
  401870:	ffffffff 			; <UNDEFINED> instruction: 0xffffffff
  401874:	400e0e00 	andmi	r0, lr, r0, lsl #28
  401878:	00000002 	andeq	r0, r0, r2
  40187c:	0000000b 	andeq	r0, r0, fp
  401880:	00000006 	andeq	r0, r0, r6
  401884:	00000000 	andeq	r0, r0, r0
  401888:	00000004 	andeq	r0, r0, r4
  40188c:	ffffffff 			; <UNDEFINED> instruction: 0xffffffff
  401890:	400e0e00 	andmi	r0, lr, r0, lsl #28
  401894:	00000001 	andeq	r0, r0, r1
  401898:	0000000b 	andeq	r0, r0, fp
  40189c:	00000006 	andeq	r0, r0, r6
  4018a0:	00000000 	andeq	r0, r0, r0
  4018a4:	00000004 	andeq	r0, r0, r4
  4018a8:	ffffffff 			; <UNDEFINED> instruction: 0xffffffff
  4018ac:	400e0e00 	andmi	r0, lr, r0, lsl #28
  4018b0:	00000010 	andeq	r0, r0, r0, lsl r0
  4018b4:	0000000b 	andeq	r0, r0, fp
  4018b8:	00000006 	andeq	r0, r0, r6
  4018bc:	00000000 	andeq	r0, r0, r0
  4018c0:	00000004 	andeq	r0, r0, r4
  4018c4:	ffffffff 			; <UNDEFINED> instruction: 0xffffffff
  4018c8:	400e0e00 	andmi	r0, lr, r0, lsl #28
  4018cc:	00000008 	andeq	r0, r0, r8
  4018d0:	0000000b 	andeq	r0, r0, fp
  4018d4:	00000006 	andeq	r0, r0, r6
  4018d8:	00000000 	andeq	r0, r0, r0
  4018dc:	00000004 	andeq	r0, r0, r4
  4018e0:	ffffffff 			; <UNDEFINED> instruction: 0xffffffff
  4018e4:	400e1000 	andmi	r1, lr, r0
  4018e8:	00001000 	andeq	r1, r0, r0
  4018ec:	0000000c 	andeq	r0, r0, ip
  4018f0:	00000005 	andeq	r0, r0, r5
  4018f4:	00000000 	andeq	r0, r0, r0
  4018f8:	00000004 	andeq	r0, r0, r4
  4018fc:	ffffffff 			; <UNDEFINED> instruction: 0xffffffff
  401900:	400e0e00 	andmi	r0, lr, r0, lsl #28
  401904:	00040000 	andeq	r0, r4, r0
  401908:	0000000b 	andeq	r0, r0, fp
  40190c:	00000005 	andeq	r0, r0, r5
  401910:	00000000 	andeq	r0, r0, r0
  401914:	00000004 	andeq	r0, r0, r4
  401918:	ffffffff 			; <UNDEFINED> instruction: 0xffffffff
  40191c:	400e0e00 	andmi	r0, lr, r0, lsl #28
  401920:	00100000 	andseq	r0, r0, r0
  401924:	0000000b 	andeq	r0, r0, fp
  401928:	00000006 	andeq	r0, r0, r6
  40192c:	00000000 	andeq	r0, r0, r0
  401930:	00000004 	andeq	r0, r0, r4
  401934:	ffffffff 			; <UNDEFINED> instruction: 0xffffffff
  401938:	400e1000 	andmi	r1, lr, r0
  40193c:	00000020 	andeq	r0, r0, r0, lsr #32
  401940:	0000000c 	andeq	r0, r0, ip
  401944:	00000006 	andeq	r0, r0, r6
  401948:	00000000 	andeq	r0, r0, r0
  40194c:	00000004 	andeq	r0, r0, r4
  401950:	ffffffff 			; <UNDEFINED> instruction: 0xffffffff
  401954:	400e0e00 	andmi	r0, lr, r0, lsl #28
  401958:	00010000 	andeq	r0, r1, r0
  40195c:	0000000b 	andeq	r0, r0, fp
  401960:	00000006 	andeq	r0, r0, r6
  401964:	00000000 	andeq	r0, r0, r0
  401968:	00000004 	andeq	r0, r0, r4
  40196c:	ffffffff 			; <UNDEFINED> instruction: 0xffffffff
  401970:	400e1000 	andmi	r1, lr, r0
  401974:	00000010 	andeq	r0, r0, r0, lsl r0
  401978:	0000000c 	andeq	r0, r0, ip
  40197c:	00000007 	andeq	r0, r0, r7
  401980:	00000000 	andeq	r0, r0, r0
  401984:	00000004 	andeq	r0, r0, r4
  401988:	ffffffff 			; <UNDEFINED> instruction: 0xffffffff
  40198c:	400e0e00 	andmi	r0, lr, r0, lsl #28
  401990:	00000008 	andeq	r0, r0, r8
  401994:	0000000b 	andeq	r0, r0, fp
  401998:	00000001 	andeq	r0, r0, r1
  40199c:	00000000 	andeq	r0, r0, r0
  4019a0:	00000004 	andeq	r0, r0, r4
  4019a4:	ffffffff 			; <UNDEFINED> instruction: 0xffffffff
  4019a8:	400e0e00 	andmi	r0, lr, r0, lsl #28
  4019ac:	00000010 	andeq	r0, r0, r0, lsl r0
  4019b0:	0000000b 	andeq	r0, r0, fp
  4019b4:	00000001 	andeq	r0, r0, r1
  4019b8:	00000000 	andeq	r0, r0, r0
  4019bc:	00000004 	andeq	r0, r0, r4
  4019c0:	ffffffff 			; <UNDEFINED> instruction: 0xffffffff
  4019c4:	400e0e00 	andmi	r0, lr, r0, lsl #28
  4019c8:	00001000 	andeq	r1, r0, r0
  4019cc:	0000000b 	andeq	r0, r0, fp
  4019d0:	00000001 	andeq	r0, r0, r1
  4019d4:	00000000 	andeq	r0, r0, r0
  4019d8:	00000004 	andeq	r0, r0, r4
  4019dc:	ffffffff 			; <UNDEFINED> instruction: 0xffffffff
  4019e0:	400e0e00 	andmi	r0, lr, r0, lsl #28
  4019e4:	00002000 	andeq	r2, r0, r0
  4019e8:	0000000b 	andeq	r0, r0, fp
  4019ec:	00000001 	andeq	r0, r0, r1
  4019f0:	00000000 	andeq	r0, r0, r0
  4019f4:	00000004 	andeq	r0, r0, r4
  4019f8:	ffffffff 			; <UNDEFINED> instruction: 0xffffffff
  4019fc:	400e0e00 	andmi	r0, lr, r0, lsl #28
  401a00:	00004000 	andeq	r4, r0, r0
  401a04:	0000000b 	andeq	r0, r0, fp
  401a08:	00000001 	andeq	r0, r0, r1
  401a0c:	00000000 	andeq	r0, r0, r0
  401a10:	00000004 	andeq	r0, r0, r4
  401a14:	ffffffff 			; <UNDEFINED> instruction: 0xffffffff
  401a18:	400e0e00 	andmi	r0, lr, r0, lsl #28
  401a1c:	00000800 	andeq	r0, r0, r0, lsl #16
  401a20:	0000000b 	andeq	r0, r0, fp
  401a24:	00000001 	andeq	r0, r0, r1
  401a28:	00000000 	andeq	r0, r0, r0
  401a2c:	00000004 	andeq	r0, r0, r4
  401a30:	ffffffff 			; <UNDEFINED> instruction: 0xffffffff
  401a34:	400e0e00 	andmi	r0, lr, r0, lsl #28
  401a38:	00000018 	andeq	r0, r0, r8, lsl r0
  401a3c:	0000000b 	andeq	r0, r0, fp
  401a40:	00000001 	andeq	r0, r0, r1
  401a44:	00000000 	andeq	r0, r0, r0
  401a48:	00000005 	andeq	r0, r0, r5
  401a4c:	ffffffff 			; <UNDEFINED> instruction: 0xffffffff
  401a50:	400e0e00 	andmi	r0, lr, r0, lsl #28
  401a54:	00000060 	andeq	r0, r0, r0, rrx
  401a58:	0000000b 	andeq	r0, r0, fp
  401a5c:	00000001 	andeq	r0, r0, r1
  401a60:	00000000 	andeq	r0, r0, r0
  401a64:	00000005 	andeq	r0, r0, r5
  401a68:	ffffffff 			; <UNDEFINED> instruction: 0xffffffff
  401a6c:	400e1000 	andmi	r1, lr, r0
  401a70:	0000000c 	andeq	r0, r0, ip
  401a74:	0000000c 	andeq	r0, r0, ip
  401a78:	00000001 	andeq	r0, r0, r1
  401a7c:	00000000 	andeq	r0, r0, r0
  401a80:	00000005 	andeq	r0, r0, r5
  401a84:	ffffffff 			; <UNDEFINED> instruction: 0xffffffff
  401a88:	400e1000 	andmi	r1, lr, r0
  401a8c:	00000002 	andeq	r0, r0, r2
  401a90:	0000000c 	andeq	r0, r0, ip
  401a94:	00000001 	andeq	r0, r0, r1
  401a98:	00000000 	andeq	r0, r0, r0
  401a9c:	00000004 	andeq	r0, r0, r4
  401aa0:	ffffffff 			; <UNDEFINED> instruction: 0xffffffff
	...
  401abc:	ffffffff 			; <UNDEFINED> instruction: 0xffffffff

00401ac0 <_ZTV10USARTClass>:
	...
  401ac8:	0040068d 	subeq	r0, r0, sp, lsl #13
  401acc:	0040032d 	subeq	r0, r0, sp, lsr #6
  401ad0:	00400647 	subeq	r0, r0, r7, asr #12
  401ad4:	00400667 	subeq	r0, r0, r7, ror #12
  401ad8:	00400655 	subeq	r0, r0, r5, asr r6
  401adc:	00400683 	subeq	r0, r0, r3, lsl #13
  401ae0:	00400643 	subeq	r0, r0, r3, asr #12
  401ae4:	00000000 	andeq	r0, r0, r0
  401ae8:	00000043 	andeq	r0, r0, r3, asr #32

00401aec <_global_impure_ptr>:
  401aec:	20000008 	andcs	r0, r0, r8

00401af0 <_init>:
  401af0:	b5f8      	push	{r3, r4, r5, r6, r7, lr}
  401af2:	bf00      	nop
  401af4:	bcf8      	pop	{r3, r4, r5, r6, r7}
  401af6:	bc08      	pop	{r3}
  401af8:	469e      	mov	lr, r3
  401afa:	4770      	bx	lr

00401afc <__init_array_start>:
  401afc:	004013d1 	ldrdeq	r1, [r0], #-49	; 0xffffffcf

00401b00 <__frame_dummy_init_array_entry>:
  401b00:	004000f1 	strdeq	r0, [r0], #-1
  401b04:	004005bd 	strheq	r0, [r0], #-93	; 0xffffffa3

00401b08 <_fini>:
  401b08:	b5f8      	push	{r3, r4, r5, r6, r7, lr}
  401b0a:	bf00      	nop
  401b0c:	bcf8      	pop	{r3, r4, r5, r6, r7}
  401b0e:	bc08      	pop	{r3}
  401b10:	469e      	mov	lr, r3
  401b12:	4770      	bx	lr

00401b14 <__fini_array_start>:
  401b14:	004000cd 	subeq	r0, r0, sp, asr #1

Disassembly of section .relocate:

20000000 <SystemCoreClock>:
20000000:	003d0900 	eorseq	r0, sp, r0, lsl #18
20000004:	00000000 	andeq	r0, r0, r0

20000008 <impure_data>:
20000008:	00000000 	andeq	r0, r0, r0
2000000c:	200002f4 	strdcs	r0, [r0], -r4
20000010:	2000035c 	andcs	r0, r0, ip, asr r3
20000014:	200003c4 	andcs	r0, r0, r4, asr #7
	...
2000003c:	00401ae8 	subeq	r1, r0, r8, ror #21
	...
200000b0:	00000001 	andeq	r0, r0, r1
200000b4:	00000000 	andeq	r0, r0, r0
200000b8:	abcd330e 	blge	1f34ccf8 <_etext+0x1ef4b1e0>
200000bc:	e66d1234 			; <UNDEFINED> instruction: 0xe66d1234
200000c0:	0005deec 	andeq	sp, r5, ip, ror #29
200000c4:	0000000b 	andeq	r0, r0, fp
	...

20000430 <_impure_ptr>:
20000430:	20000008 	andcs	r0, r0, r8

20000434 <__malloc_av_>:
	...
2000043c:	20000434 	andcs	r0, r0, r4, lsr r4
20000440:	20000434 	andcs	r0, r0, r4, lsr r4
20000444:	2000043c 	andcs	r0, r0, ip, lsr r4
20000448:	2000043c 	andcs	r0, r0, ip, lsr r4
2000044c:	20000444 	andcs	r0, r0, r4, asr #8
20000450:	20000444 	andcs	r0, r0, r4, asr #8
20000454:	2000044c 	andcs	r0, r0, ip, asr #8
20000458:	2000044c 	andcs	r0, r0, ip, asr #8
2000045c:	20000454 	andcs	r0, r0, r4, asr r4
20000460:	20000454 	andcs	r0, r0, r4, asr r4
20000464:	2000045c 	andcs	r0, r0, ip, asr r4
20000468:	2000045c 	andcs	r0, r0, ip, asr r4
2000046c:	20000464 	andcs	r0, r0, r4, ror #8
20000470:	20000464 	andcs	r0, r0, r4, ror #8
20000474:	2000046c 	andcs	r0, r0, ip, ror #8
20000478:	2000046c 	andcs	r0, r0, ip, ror #8
2000047c:	20000474 	andcs	r0, r0, r4, ror r4
20000480:	20000474 	andcs	r0, r0, r4, ror r4
20000484:	2000047c 	andcs	r0, r0, ip, ror r4
20000488:	2000047c 	andcs	r0, r0, ip, ror r4
2000048c:	20000484 	andcs	r0, r0, r4, lsl #9
20000490:	20000484 	andcs	r0, r0, r4, lsl #9
20000494:	2000048c 	andcs	r0, r0, ip, lsl #9
20000498:	2000048c 	andcs	r0, r0, ip, lsl #9
2000049c:	20000494 	mulcs	r0, r4, r4
200004a0:	20000494 	mulcs	r0, r4, r4
200004a4:	2000049c 	mulcs	r0, ip, r4
200004a8:	2000049c 	mulcs	r0, ip, r4
200004ac:	200004a4 	andcs	r0, r0, r4, lsr #9
200004b0:	200004a4 	andcs	r0, r0, r4, lsr #9
200004b4:	200004ac 	andcs	r0, r0, ip, lsr #9
200004b8:	200004ac 	andcs	r0, r0, ip, lsr #9
200004bc:	200004b4 			; <UNDEFINED> instruction: 0x200004b4
200004c0:	200004b4 			; <UNDEFINED> instruction: 0x200004b4
200004c4:	200004bc 			; <UNDEFINED> instruction: 0x200004bc
200004c8:	200004bc 			; <UNDEFINED> instruction: 0x200004bc
200004cc:	200004c4 	andcs	r0, r0, r4, asr #9
200004d0:	200004c4 	andcs	r0, r0, r4, asr #9
200004d4:	200004cc 	andcs	r0, r0, ip, asr #9
200004d8:	200004cc 	andcs	r0, r0, ip, asr #9
200004dc:	200004d4 	ldrdcs	r0, [r0], -r4
200004e0:	200004d4 	ldrdcs	r0, [r0], -r4
200004e4:	200004dc 	ldrdcs	r0, [r0], -ip
200004e8:	200004dc 	ldrdcs	r0, [r0], -ip
200004ec:	200004e4 	andcs	r0, r0, r4, ror #9
200004f0:	200004e4 	andcs	r0, r0, r4, ror #9
200004f4:	200004ec 	andcs	r0, r0, ip, ror #9
200004f8:	200004ec 	andcs	r0, r0, ip, ror #9
200004fc:	200004f4 	strdcs	r0, [r0], -r4
20000500:	200004f4 	strdcs	r0, [r0], -r4
20000504:	200004fc 	strdcs	r0, [r0], -ip
20000508:	200004fc 	strdcs	r0, [r0], -ip
2000050c:	20000504 	andcs	r0, r0, r4, lsl #10
20000510:	20000504 	andcs	r0, r0, r4, lsl #10
20000514:	2000050c 	andcs	r0, r0, ip, lsl #10
20000518:	2000050c 	andcs	r0, r0, ip, lsl #10
2000051c:	20000514 	andcs	r0, r0, r4, lsl r5
20000520:	20000514 	andcs	r0, r0, r4, lsl r5
20000524:	2000051c 	andcs	r0, r0, ip, lsl r5
20000528:	2000051c 	andcs	r0, r0, ip, lsl r5
2000052c:	20000524 	andcs	r0, r0, r4, lsr #10
20000530:	20000524 	andcs	r0, r0, r4, lsr #10
20000534:	2000052c 	andcs	r0, r0, ip, lsr #10
20000538:	2000052c 	andcs	r0, r0, ip, lsr #10
2000053c:	20000534 	andcs	r0, r0, r4, lsr r5
20000540:	20000534 	andcs	r0, r0, r4, lsr r5
20000544:	2000053c 	andcs	r0, r0, ip, lsr r5
20000548:	2000053c 	andcs	r0, r0, ip, lsr r5
2000054c:	20000544 	andcs	r0, r0, r4, asr #10
20000550:	20000544 	andcs	r0, r0, r4, asr #10
20000554:	2000054c 	andcs	r0, r0, ip, asr #10
20000558:	2000054c 	andcs	r0, r0, ip, asr #10
2000055c:	20000554 	andcs	r0, r0, r4, asr r5
20000560:	20000554 	andcs	r0, r0, r4, asr r5
20000564:	2000055c 	andcs	r0, r0, ip, asr r5
20000568:	2000055c 	andcs	r0, r0, ip, asr r5
2000056c:	20000564 	andcs	r0, r0, r4, ror #10
20000570:	20000564 	andcs	r0, r0, r4, ror #10
20000574:	2000056c 	andcs	r0, r0, ip, ror #10
20000578:	2000056c 	andcs	r0, r0, ip, ror #10
2000057c:	20000574 	andcs	r0, r0, r4, ror r5
20000580:	20000574 	andcs	r0, r0, r4, ror r5
20000584:	2000057c 	andcs	r0, r0, ip, ror r5
20000588:	2000057c 	andcs	r0, r0, ip, ror r5
2000058c:	20000584 	andcs	r0, r0, r4, lsl #11
20000590:	20000584 	andcs	r0, r0, r4, lsl #11
20000594:	2000058c 	andcs	r0, r0, ip, lsl #11
20000598:	2000058c 	andcs	r0, r0, ip, lsl #11
2000059c:	20000594 	mulcs	r0, r4, r5
200005a0:	20000594 	mulcs	r0, r4, r5
200005a4:	2000059c 	mulcs	r0, ip, r5
200005a8:	2000059c 	mulcs	r0, ip, r5
200005ac:	200005a4 	andcs	r0, r0, r4, lsr #11
200005b0:	200005a4 	andcs	r0, r0, r4, lsr #11
200005b4:	200005ac 	andcs	r0, r0, ip, lsr #11
200005b8:	200005ac 	andcs	r0, r0, ip, lsr #11
200005bc:	200005b4 			; <UNDEFINED> instruction: 0x200005b4
200005c0:	200005b4 			; <UNDEFINED> instruction: 0x200005b4
200005c4:	200005bc 			; <UNDEFINED> instruction: 0x200005bc
200005c8:	200005bc 			; <UNDEFINED> instruction: 0x200005bc
200005cc:	200005c4 	andcs	r0, r0, r4, asr #11
200005d0:	200005c4 	andcs	r0, r0, r4, asr #11
200005d4:	200005cc 	andcs	r0, r0, ip, asr #11
200005d8:	200005cc 	andcs	r0, r0, ip, asr #11
200005dc:	200005d4 	ldrdcs	r0, [r0], -r4
200005e0:	200005d4 	ldrdcs	r0, [r0], -r4
200005e4:	200005dc 	ldrdcs	r0, [r0], -ip
200005e8:	200005dc 	ldrdcs	r0, [r0], -ip
200005ec:	200005e4 	andcs	r0, r0, r4, ror #11
200005f0:	200005e4 	andcs	r0, r0, r4, ror #11
200005f4:	200005ec 	andcs	r0, r0, ip, ror #11
200005f8:	200005ec 	andcs	r0, r0, ip, ror #11
200005fc:	200005f4 	strdcs	r0, [r0], -r4
20000600:	200005f4 	strdcs	r0, [r0], -r4
20000604:	200005fc 	strdcs	r0, [r0], -ip
20000608:	200005fc 	strdcs	r0, [r0], -ip
2000060c:	20000604 	andcs	r0, r0, r4, lsl #12
20000610:	20000604 	andcs	r0, r0, r4, lsl #12
20000614:	2000060c 	andcs	r0, r0, ip, lsl #12
20000618:	2000060c 	andcs	r0, r0, ip, lsl #12
2000061c:	20000614 	andcs	r0, r0, r4, lsl r6
20000620:	20000614 	andcs	r0, r0, r4, lsl r6
20000624:	2000061c 	andcs	r0, r0, ip, lsl r6
20000628:	2000061c 	andcs	r0, r0, ip, lsl r6
2000062c:	20000624 	andcs	r0, r0, r4, lsr #12
20000630:	20000624 	andcs	r0, r0, r4, lsr #12
20000634:	2000062c 	andcs	r0, r0, ip, lsr #12
20000638:	2000062c 	andcs	r0, r0, ip, lsr #12
2000063c:	20000634 	andcs	r0, r0, r4, lsr r6
20000640:	20000634 	andcs	r0, r0, r4, lsr r6
20000644:	2000063c 	andcs	r0, r0, ip, lsr r6
20000648:	2000063c 	andcs	r0, r0, ip, lsr r6
2000064c:	20000644 	andcs	r0, r0, r4, asr #12
20000650:	20000644 	andcs	r0, r0, r4, asr #12
20000654:	2000064c 	andcs	r0, r0, ip, asr #12
20000658:	2000064c 	andcs	r0, r0, ip, asr #12
2000065c:	20000654 	andcs	r0, r0, r4, asr r6
20000660:	20000654 	andcs	r0, r0, r4, asr r6
20000664:	2000065c 	andcs	r0, r0, ip, asr r6
20000668:	2000065c 	andcs	r0, r0, ip, asr r6
2000066c:	20000664 	andcs	r0, r0, r4, ror #12
20000670:	20000664 	andcs	r0, r0, r4, ror #12
20000674:	2000066c 	andcs	r0, r0, ip, ror #12
20000678:	2000066c 	andcs	r0, r0, ip, ror #12
2000067c:	20000674 	andcs	r0, r0, r4, ror r6
20000680:	20000674 	andcs	r0, r0, r4, ror r6
20000684:	2000067c 	andcs	r0, r0, ip, ror r6
20000688:	2000067c 	andcs	r0, r0, ip, ror r6
2000068c:	20000684 	andcs	r0, r0, r4, lsl #13
20000690:	20000684 	andcs	r0, r0, r4, lsl #13
20000694:	2000068c 	andcs	r0, r0, ip, lsl #13
20000698:	2000068c 	andcs	r0, r0, ip, lsl #13
2000069c:	20000694 	mulcs	r0, r4, r6
200006a0:	20000694 	mulcs	r0, r4, r6
200006a4:	2000069c 	mulcs	r0, ip, r6
200006a8:	2000069c 	mulcs	r0, ip, r6
200006ac:	200006a4 	andcs	r0, r0, r4, lsr #13
200006b0:	200006a4 	andcs	r0, r0, r4, lsr #13
200006b4:	200006ac 	andcs	r0, r0, ip, lsr #13
200006b8:	200006ac 	andcs	r0, r0, ip, lsr #13
200006bc:	200006b4 			; <UNDEFINED> instruction: 0x200006b4
200006c0:	200006b4 			; <UNDEFINED> instruction: 0x200006b4
200006c4:	200006bc 			; <UNDEFINED> instruction: 0x200006bc
200006c8:	200006bc 			; <UNDEFINED> instruction: 0x200006bc
200006cc:	200006c4 	andcs	r0, r0, r4, asr #13
200006d0:	200006c4 	andcs	r0, r0, r4, asr #13
200006d4:	200006cc 	andcs	r0, r0, ip, asr #13
200006d8:	200006cc 	andcs	r0, r0, ip, asr #13
200006dc:	200006d4 	ldrdcs	r0, [r0], -r4
200006e0:	200006d4 	ldrdcs	r0, [r0], -r4
200006e4:	200006dc 	ldrdcs	r0, [r0], -ip
200006e8:	200006dc 	ldrdcs	r0, [r0], -ip
200006ec:	200006e4 	andcs	r0, r0, r4, ror #13
200006f0:	200006e4 	andcs	r0, r0, r4, ror #13
200006f4:	200006ec 	andcs	r0, r0, ip, ror #13
200006f8:	200006ec 	andcs	r0, r0, ip, ror #13
200006fc:	200006f4 	strdcs	r0, [r0], -r4
20000700:	200006f4 	strdcs	r0, [r0], -r4
20000704:	200006fc 	strdcs	r0, [r0], -ip
20000708:	200006fc 	strdcs	r0, [r0], -ip
2000070c:	20000704 	andcs	r0, r0, r4, lsl #14
20000710:	20000704 	andcs	r0, r0, r4, lsl #14
20000714:	2000070c 	andcs	r0, r0, ip, lsl #14
20000718:	2000070c 	andcs	r0, r0, ip, lsl #14
2000071c:	20000714 	andcs	r0, r0, r4, lsl r7
20000720:	20000714 	andcs	r0, r0, r4, lsl r7
20000724:	2000071c 	andcs	r0, r0, ip, lsl r7
20000728:	2000071c 	andcs	r0, r0, ip, lsl r7
2000072c:	20000724 	andcs	r0, r0, r4, lsr #14
20000730:	20000724 	andcs	r0, r0, r4, lsr #14
20000734:	2000072c 	andcs	r0, r0, ip, lsr #14
20000738:	2000072c 	andcs	r0, r0, ip, lsr #14
2000073c:	20000734 	andcs	r0, r0, r4, lsr r7
20000740:	20000734 	andcs	r0, r0, r4, lsr r7
20000744:	2000073c 	andcs	r0, r0, ip, lsr r7
20000748:	2000073c 	andcs	r0, r0, ip, lsr r7
2000074c:	20000744 	andcs	r0, r0, r4, asr #14
20000750:	20000744 	andcs	r0, r0, r4, asr #14
20000754:	2000074c 	andcs	r0, r0, ip, asr #14
20000758:	2000074c 	andcs	r0, r0, ip, asr #14
2000075c:	20000754 	andcs	r0, r0, r4, asr r7
20000760:	20000754 	andcs	r0, r0, r4, asr r7
20000764:	2000075c 	andcs	r0, r0, ip, asr r7
20000768:	2000075c 	andcs	r0, r0, ip, asr r7
2000076c:	20000764 	andcs	r0, r0, r4, ror #14
20000770:	20000764 	andcs	r0, r0, r4, ror #14
20000774:	2000076c 	andcs	r0, r0, ip, ror #14
20000778:	2000076c 	andcs	r0, r0, ip, ror #14
2000077c:	20000774 	andcs	r0, r0, r4, ror r7
20000780:	20000774 	andcs	r0, r0, r4, ror r7
20000784:	2000077c 	andcs	r0, r0, ip, ror r7
20000788:	2000077c 	andcs	r0, r0, ip, ror r7
2000078c:	20000784 	andcs	r0, r0, r4, lsl #15
20000790:	20000784 	andcs	r0, r0, r4, lsl #15
20000794:	2000078c 	andcs	r0, r0, ip, lsl #15
20000798:	2000078c 	andcs	r0, r0, ip, lsl #15
2000079c:	20000794 	mulcs	r0, r4, r7
200007a0:	20000794 	mulcs	r0, r4, r7
200007a4:	2000079c 	mulcs	r0, ip, r7
200007a8:	2000079c 	mulcs	r0, ip, r7
200007ac:	200007a4 	andcs	r0, r0, r4, lsr #15
200007b0:	200007a4 	andcs	r0, r0, r4, lsr #15
200007b4:	200007ac 	andcs	r0, r0, ip, lsr #15
200007b8:	200007ac 	andcs	r0, r0, ip, lsr #15
200007bc:	200007b4 			; <UNDEFINED> instruction: 0x200007b4
200007c0:	200007b4 			; <UNDEFINED> instruction: 0x200007b4
200007c4:	200007bc 			; <UNDEFINED> instruction: 0x200007bc
200007c8:	200007bc 			; <UNDEFINED> instruction: 0x200007bc
200007cc:	200007c4 	andcs	r0, r0, r4, asr #15
200007d0:	200007c4 	andcs	r0, r0, r4, asr #15
200007d4:	200007cc 	andcs	r0, r0, ip, asr #15
200007d8:	200007cc 	andcs	r0, r0, ip, asr #15
200007dc:	200007d4 	ldrdcs	r0, [r0], -r4
200007e0:	200007d4 	ldrdcs	r0, [r0], -r4
200007e4:	200007dc 	ldrdcs	r0, [r0], -ip
200007e8:	200007dc 	ldrdcs	r0, [r0], -ip
200007ec:	200007e4 	andcs	r0, r0, r4, ror #15
200007f0:	200007e4 	andcs	r0, r0, r4, ror #15
200007f4:	200007ec 	andcs	r0, r0, ip, ror #15
200007f8:	200007ec 	andcs	r0, r0, ip, ror #15
200007fc:	200007f4 	strdcs	r0, [r0], -r4
20000800:	200007f4 	strdcs	r0, [r0], -r4
20000804:	200007fc 	strdcs	r0, [r0], -ip
20000808:	200007fc 	strdcs	r0, [r0], -ip
2000080c:	20000804 	andcs	r0, r0, r4, lsl #16
20000810:	20000804 	andcs	r0, r0, r4, lsl #16
20000814:	2000080c 	andcs	r0, r0, ip, lsl #16
20000818:	2000080c 	andcs	r0, r0, ip, lsl #16
2000081c:	20000814 	andcs	r0, r0, r4, lsl r8
20000820:	20000814 	andcs	r0, r0, r4, lsl r8
20000824:	2000081c 	andcs	r0, r0, ip, lsl r8
20000828:	2000081c 	andcs	r0, r0, ip, lsl r8
2000082c:	20000824 	andcs	r0, r0, r4, lsr #16
20000830:	20000824 	andcs	r0, r0, r4, lsr #16
20000834:	2000082c 	andcs	r0, r0, ip, lsr #16
20000838:	2000082c 	andcs	r0, r0, ip, lsr #16

2000083c <__malloc_trim_threshold>:
2000083c:	00020000 	andeq	r0, r2, r0

20000840 <__malloc_sbrk_base>:
20000840:	ffffffff 			; <UNDEFINED> instruction: 0xffffffff
